(dp1
S'output'
p2
S"<type 'exceptions.AttributeError'> 'Expression' object has no attribute 'tablename'"
p3
sS'layer'
p4
S'C:\\Users\\Kevin\\Desktop\\web2py\\applications\\Escuela\\controllers/admin.py'
p5
sS'code'
p6
S'# -*- coding: utf-8 -*-\n# intente algo como\ndef index(): return dict(message="hello from admin.py")\ndef ingresoalumno():\n    name = request.vars.get(\'name\')\n    fecha = request.vars.get(\'nacimiento\')\n    direccion = request.vars.get(\'direccion\')\n    telefono = request.vars.get(\'telefono\')\n    encargado = request.vars.get(\'encargado\')\n    alumnoid = None\n    if name:\n            alumnoid = db.alumno.insert(nombre = name, fecha_nacimiento = fecha, direccion = direccion, telefono=telefono, nombre_encargado=encargado)\n    return dict(alumnoid = alumnoid)\ndef Asignacion():\n    gradoselec = request.vars.get(\'grado\')\n    seccionselec = request.vars.get(\'seccion\')\n    alumnoselec = request.vars.get(\'alumno\')\n    enviar = request.vars.get(\'Guardar\')\n    grado = db(db.seccionxgrado.idgrado == db.grado.id).select()\n    seccion = db(db.seccionxgrado.idseccion == db.seccion.id).select(groupby=db.seccion.descripcion)\n    existe = None\n    idregistro = None\n    if enviar:\n        if gradoselec:\n            existe = db((db.seccionxgrado.idgrado == gradoselec) & (db.seccionxgrado.idseccion == seccionselec)).select()\n        for rows in existe:\n            existeasig = db((db.asignacion.idalumno == alumnoselec)).select()\n            if existeasig != None:\n                for row in existeasig:\n                    row.update_record(idalumno = alumnoselec, idgradoxseccion = rows.id)\n            else:\n                idregistro = db.asignacion.insert(idalumno = alumnoselec, idgradoxseccion = rows.id)\n    return dict(grado = grado, seccion = seccion, idregistro = idregistro)\ndef ingresonotas():\n    alumno = request.vars.get(\'alumno\')\n    curso = request.vars.get(\'curso\')\n    nota = request.vars.get(\'nota\')\n    import datetime\n    fechaingreso = datetime.datetime.now()\n    idnota = None\n    if nota:\n        existe = db((db.calificacion.idalumno == alumno) & (db.calificacion.idcurso == curso)).select()\n        if existe != None:\n            for row in existe:\n                row.update_record(descripcion = nota, idalumno = alumno, idcurso = curso, fechaingreso = fechaingreso)\n        else:\n            idnota = db.calificacion.insert(descripcion = nota, idalumno = alumno, idcurso = curso, fechaingreso = fechaingreso)\n    return dict(idnota=idnota)\ndef vernota():\n    calificacion = db((db.calificacion.idalumno == db.alumno.id) & (db.calificacion.idcurso == db.curso.id)).select()\n    return dict(calificacion = calificacion)\ndef creargrado():\n    grado = request.vars.get(\'grado\')\n    gradoid = None\n    if grado:\n            gradoid = db.grado.insert(descripcion = grado)\n    return dict(gradoid = gradoid)\ndef crearseccion():\n    seccion = request.vars.get(\'seccion\')\n    gradoid = None\n    if seccion:\n            gradoid = db.seccion.insert(descripcion = seccion)\n    return dict(gradoid = gradoid)\ndef asignarsecgrad():\n    grados = request.vars.get(\'grados\')\n    seccion = request.vars.get(\'seccion\')\n    gradoid = None\n    if grados:\n            gradoid = db.seccionxgrado.insert(idgrado = grados, idseccion = seccion)\n    return dict(gradoid = gradoid)\ndef crearcurso():\n    curso = request.vars.get(\'curso\')\n    catedratico = request.vars.get(\'catedratico\')\n    rows = db((db.empleado.id > 0) & (db.empleado.idtipo == 1)).select()\n    cursoid = None\n    if curso:\n        cursoid = db.curso.insert(descripcion = curso, idempleado = catedratico)\n    return dict(rows = rows, cursoid = cursoid)\ndef crearempleado():\n    nombre = request.vars.get(\'nombre\')\n    nacimiento = request.vars.get(\'nacimiento\')\n    identificacion = request.vars.get(\'identificacion\')\n    tipo = request.vars.get(\'tipo\')\n    empleadoid = None\n    if nombre:\n        empleadoid = db.empleado.insert(nombre = nombre, fechanacimiento = nacimiento, identificacion = identificacion, idtipo = tipo)\n    return dict(empleadoid = empleadoid)\ndef alumnoasignado():\n    alumno=db(\n            (db.asignacion.idalumno == db.alumno.id) &\n            (db.asignacion.idgradoxseccion == db.seccionxgrado.id) &\n            (db.seccionxgrado.idgrado == db.grado.id) &\n            (db.seccionxgrado.idseccion == db.seccion.id)).select()\n    return dict(alumno = alumno)\ndef crearhorario():\n    return dict(message = "hola")\ndef cursoxgrado():\n    grado = request.vars.get(\'grado\')\n    curso = request.vars.get(\'curso\')\n    enviar = request.vars.get(\'Guardar\')\n    gradoid = None\n    idregistro = None\n    if enviar != None:\n        existe = db((db.cursoxgrado.idcurso == curso) & (db.cursoxgrado.idgrado == grado)).select()\n        if existe:\n            gradoid = "Curso ya fue asignado a este grado"\n        else:\n            idregistro = db.cursoxgrado.insert(idcurso = curso, idgrado = grado)\n            gradoid = "Curso Asignado Exitosamente!"\n    grid = SQLFORM.grid(db.curso.descripcion, db.grado.descripcion)\n    return dict(grid = grid, gradoid = gradoid)\n\nresponse._vars=response._caller(cursoxgrado)\n'
p7
sS'snapshot'
p8
(dp9
S'exception'
p10
(dp11
S'__hash__'
p12
S"<method-wrapper '__hash__' of exceptions.AttributeError object>"
p13
sS'__setattr__'
p14
S"<method-wrapper '__setattr__' of exceptions.AttributeError object>"
p15
sS'__reduce_ex__'
p16
S'<built-in method __reduce_ex__ of exceptions.AttributeError object>'
p17
sS'__getslice__'
p18
S"<method-wrapper '__getslice__' of exceptions.AttributeError object>"
p19
sS'__getitem__'
p20
S"<method-wrapper '__getitem__' of exceptions.AttributeError object>"
p21
sS'__setstate__'
p22
S'<built-in method __setstate__ of exceptions.AttributeError object>'
p23
sS'__reduce__'
p24
S'<built-in method __reduce__ of exceptions.AttributeError object>'
p25
sS'__str__'
p26
S"<method-wrapper '__str__' of exceptions.AttributeError object>"
p27
sS'__format__'
p28
S'<built-in method __format__ of exceptions.AttributeError object>'
p29
sS'__getattribute__'
p30
S"<method-wrapper '__getattribute__' of exceptions.AttributeError object>"
p31
sS'__class__'
p32
S"<type 'exceptions.AttributeError'>"
p33
sS'__unicode__'
p34
S'<built-in method __unicode__ of exceptions.AttributeError object>'
p35
sS'__delattr__'
p36
S"<method-wrapper '__delattr__' of exceptions.AttributeError object>"
p37
sS'__subclasshook__'
p38
S'<built-in method __subclasshook__ of type object>'
p39
sS'__repr__'
p40
S"<method-wrapper '__repr__' of exceptions.AttributeError object>"
p41
sS'args'
p42
S'("\'Expression\' object has no attribute \'tablename\'",)'
p43
sS'__dict__'
p44
S'{}'
p45
sS'__sizeof__'
p46
S'<built-in method __sizeof__ of exceptions.AttributeError object>'
p47
sS'__doc__'
p48
S"'Attribute not found.'"
p49
sS'__init__'
p50
S"<method-wrapper '__init__' of exceptions.AttributeError object>"
p51
sS'__new__'
p52
S'<built-in method __new__ of type object>'
p53
ssS'evalue'
p54
S"'Expression' object has no attribute 'tablename'"
p55
sS'request'
p56
cgluon.html
XML_unpickle
p57
(S's\x0b]\x00\x00<div><table><tr><td style="font-weight:bold;vertical-align:top;">ajax</td><td style="vertical-align:top;">:</td><td><div>False</div></td></tr><tr><td style="font-weight:bold;vertical-align:top;">application</td><td style="vertical-align:top;">:</td><td><div>Escuela</div></td></tr><tr><td style="font-weight:bold;vertical-align:top;">args</td><td style="vertical-align:top;">:</td><td><div><table></table></div></td></tr><tr><td style="font-weight:bold;vertical-align:top;">cid</td><td style="vertical-align:top;">:</td><td><div>None</div></td></tr><tr><td style="font-weight:bold;vertical-align:top;">client</td><td style="vertical-align:top;">:</td><td><div>127.0.0.1</div></td></tr><tr><td style="font-weight:bold;vertical-align:top;">controller</td><td style="vertical-align:top;">:</td><td><div>admin</div></td></tr><tr><td style="font-weight:bold;vertical-align:top;">cookies</td><td style="vertical-align:top;">:</td><td><div><table><tr><td style="font-weight:bold;vertical-align:top;">session_id_admin</td><td style="vertical-align:top;">:</td><td><div>127.0.0.1-2de2a45a-9970-480c-94ce-e05a87d1c9ac<table><tr><td style="font-weight:bold;vertical-align:top;">comment</td><td style="vertical-align:top;">:</td><td><div></div></td></tr><tr><td style="font-weight:bold;vertical-align:top;">domain</td><td style="vertical-align:top;">:</td><td><div></div></td></tr><tr><td style="font-weight:bold;vertical-align:top;">expires</td><td style="vertical-align:top;">:</td><td><div></div></td></tr><tr><td style="font-weight:bold;vertical-align:top;">httponly</td><td style="vertical-align:top;">:</td><td><div></div></td></tr><tr><td style="font-weight:bold;vertical-align:top;">max-age</td><td style="vertical-align:top;">:</td><td><div></div></td></tr><tr><td style="font-weight:bold;vertical-align:top;">path</td><td style="vertical-align:top;">:</td><td><div></div></td></tr><tr><td style="font-weight:bold;vertical-align:top;">secure</td><td style="vertical-align:top;">:</td><td><div></div></td></tr><tr><td style="font-weight:bold;vertical-align:top;">version</td><td style="vertical-align:top;">:</td><td><div></div></td></tr></table></div></td></tr><tr><td style="font-weight:bold;vertical-align:top;">session_id_escuela</td><td style="vertical-align:top;">:</td><td><div>127.0.0.1-b38e3250-5c4c-47a3-9c5c-bfd05f25d98f<table><tr><td style="font-weight:bold;vertical-align:top;">comment</td><td style="vertical-align:top;">:</td><td><div></div></td></tr><tr><td style="font-weight:bold;vertical-align:top;">domain</td><td style="vertical-align:top;">:</td><td><div></div></td></tr><tr><td style="font-weight:bold;vertical-align:top;">expires</td><td style="vertical-align:top;">:</td><td><div></div></td></tr><tr><td style="font-weight:bold;vertical-align:top;">httponly</td><td style="vertical-align:top;">:</td><td><div></div></td></tr><tr><td style="font-weight:bold;vertical-align:top;">max-age</td><td style="vertical-align:top;">:</td><td><div></div></td></tr><tr><td style="font-weight:bold;vertical-align:top;">path</td><td style="vertical-align:top;">:</td><td><div></div></td></tr><tr><td style="font-weight:bold;vertical-align:top;">secure</td><td style="vertical-align:top;">:</td><td><div></div></td></tr><tr><td style="font-weight:bold;vertical-align:top;">version</td><td style="vertical-align:top;">:</td><td><div></div></td></tr></table></div></td></tr><tr><td style="font-weight:bold;vertical-align:top;">session_id_welcome</td><td style="vertical-align:top;">:</td><td><div>127.0.0.1-e22b2db1-925a-40d6-8db3-8caaf8b2cecd<table><tr><td style="font-weight:bold;vertical-align:top;">comment</td><td style="vertical-align:top;">:</td><td><div></div></td></tr><tr><td style="font-weight:bold;vertical-align:top;">domain</td><td style="vertical-align:top;">:</td><td><div></div></td></tr><tr><td style="font-weight:bold;vertical-align:top;">expires</td><td style="vertical-align:top;">:</td><td><div></div></td></tr><tr><td style="font-weight:bold;vertical-align:top;">httponly</td><td style="vertical-align:top;">:</td><td><div></div></td></tr><tr><td style="font-weight:bold;vertical-align:top;">max-age</td><td style="vertical-align:top;">:</td><td><div></div></td></tr><tr><td style="font-weight:bold;vertical-align:top;">path</td><td style="vertical-align:top;">:</td><td><div></div></td></tr><tr><td style="font-weight:bold;vertical-align:top;">secure</td><td style="vertical-align:top;">:</td><td><div></div></td></tr><tr><td style="font-weight:bold;vertical-align:top;">version</td><td style="vertical-align:top;">:</td><td><div></div></td></tr></table></div></td></tr></table></div></td></tr><tr><td style="font-weight:bold;vertical-align:top;">env</td><td style="vertical-align:top;">:</td><td><div><table><tr><td style="font-weight:bold;vertical-align:top;">HTTP_ACCEPT</td><td style="vertical-align:top;">:</td><td><div>text/html,application/xhtml+xml,application/xml;q=0.9,image/webp,image/apng,*/*;q=0.8</div></td></tr><tr><td style="font-weight:bold;vertical-align:top;">HTTP_ACCEPT_ENCODING</td><td style="vertical-align:top;">:</td><td><div>gzip, deflate, br</div></td></tr><tr><td style="font-weight:bold;vertical-align:top;">HTTP_ACCEPT_LANGUAGE</td><td style="vertical-align:top;">:</td><td><div>es-ES,es;q=0.9</div></td></tr><tr><td style="font-weight:bold;vertical-align:top;">HTTP_CACHE_CONTROL</td><td style="vertical-align:top;">:</td><td><div>max-age=0</div></td></tr><tr><td style="font-weight:bold;vertical-align:top;">HTTP_CONNECTION</td><td style="vertical-align:top;">:</td><td><div>keep-alive</div></td></tr><tr><td style="font-weight:bold;vertical-align:top;">HTTP_COOKIE</td><td style="vertical-align:top;">:</td><td><div>session_id_welcome=127.0.0.1-e22b2db1-925a-40d6-8db3-8caaf8b2cecd; session_id_admin=127.0.0.1-2de2a45a-9970-480c-94ce-e05a87d1c9ac; session_id_escuela=127.0.0.1-b38e3250-5c4c-47a3-9c5c-bfd05f25d98f</div></td></tr><tr><td style="font-weight:bold;vertical-align:top;">HTTP_HOST</td><td style="vertical-align:top;">:</td><td><div>127.0.0.1:8000</div></td></tr><tr><td style="font-weight:bold;vertical-align:top;">HTTP_UPGRADE_INSECURE_REQUESTS</td><td style="vertical-align:top;">:</td><td><div>1</div></td></tr><tr><td style="font-weight:bold;vertical-align:top;">HTTP_USER_AGENT</td><td style="vertical-align:top;">:</td><td><div>Mozilla/5.0 (Windows NT 10.0; Win64; x64) AppleWebKit/537.36 (KHTML, like Gecko) Chrome/66.0.3359.181 Safari/537.36</div></td></tr><tr><td style="font-weight:bold;vertical-align:top;">PATH_INFO</td><td style="vertical-align:top;">:</td><td><div>/Escuela/admin/cursoxgrado</div></td></tr><tr><td style="font-weight:bold;vertical-align:top;">QUERY_STRING</td><td style="vertical-align:top;">:</td><td><div>keywords=</div></td></tr><tr><td style="font-weight:bold;vertical-align:top;">REMOTE_ADDR</td><td style="vertical-align:top;">:</td><td><div>127.0.0.1</div></td></tr><tr><td style="font-weight:bold;vertical-align:top;">REMOTE_PORT</td><td style="vertical-align:top;">:</td><td><div>49757</div></td></tr><tr><td style="font-weight:bold;vertical-align:top;">REQUEST_METHOD</td><td style="vertical-align:top;">:</td><td><div>GET</div></td></tr><tr><td style="font-weight:bold;vertical-align:top;">SCRIPT_NAME</td><td style="vertical-align:top;">:</td><td><div></div></td></tr><tr><td style="font-weight:bold;vertical-align:top;">SERVER_NAME</td><td style="vertical-align:top;">:</td><td><div>LAPTOP-PEP826GJ</div></td></tr><tr><td style="font-weight:bold;vertical-align:top;">SERVER_PORT</td><td style="vertical-align:top;">:</td><td><div>8000</div></td></tr><tr><td style="font-weight:bold;vertical-align:top;">SERVER_PROTOCOL</td><td style="vertical-align:top;">:</td><td><div>HTTP/1.1</div></td></tr><tr><td style="font-weight:bold;vertical-align:top;">SERVER_SOFTWARE</td><td style="vertical-align:top;">:</td><td><div>Rocket 1.2.6</div></td></tr><tr><td style="font-weight:bold;vertical-align:top;">app_folders</td><td style="vertical-align:top;">:</td><td><div>set([&#x27;C:\\\\Users\\\\Kevin\\\\Desktop\\\\web2py\\\\applications\\\\admin\\\\&#x27;, &#x27;C:\\\\Users\\\\Kevin\\\\Desktop\\\\web2py\\\\applications\\\\welcome\\\\&#x27;, &#x27;C:\\\\Users\\\\Kevin\\\\Desktop\\\\web2py\\\\applications\\\\Escuela\\\\&#x27;])</div></td></tr><tr><td style="font-weight:bold;vertical-align:top;">applications_parent</td><td style="vertical-align:top;">:</td><td><div>C:\\Users\\Kevin\\Desktop\\web2py</div></td></tr><tr><td style="font-weight:bold;vertical-align:top;">cmd_args</td><td style="vertical-align:top;">:</td><td><div><table></table></div></td></tr><tr><td style="font-weight:bold;vertical-align:top;">cmd_options</td><td style="vertical-align:top;">:</td><td><div>&lt;Values at 0x4325c60: {&#x27;verbose&#x27;: False, &#x27;ip&#x27;: &#x27;127.0.0.1&#x27;, &#x27;debuglevel&#x27;: 30, &#x27;with_scheduler&#x27;: False, &#x27;shutdown_timeout&#x27;: 5, &#x27;taskbar&#x27;: False, &#x27;with_coverage&#x27;: False, &#x27;pid_filename&#x27;: &#x27;httpserver.pid&#x27;, &#x27;maxthreads&#x27;: None, &#x27;softcron&#x27;: False, &#x27;server_name&#x27;: &#x27;LAPTOP-PEP826GJ&#x27;, &#x27;bpython&#x27;: False, &#x27;nogui&#x27;: False, &#x27;port&#x27;: 8000, &#x27;print_errors&#x27;: False, &#x27;extcron&#x27;: False, &#x27;runcron&#x27;: False, &#x27;run_system_tests&#x27;: False, &#x27;test&#x27;: None, &#x27;folder&#x27;: &#x27;C:\\\\Users\\\\Kevin\\\\Desktop\\\\web2py&#x27;, &#x27;config&#x27;: &#x27;&#x27;, &#x27;minthreads&#x27;: None, &#x27;shell&#x27;: None, &#x27;run&#x27;: &#x27;&#x27;, &#x27;log_filename&#x27;: &#x27;httpserver.log&#x27;, &#x27;profiler_dir&#x27;: None, &#x27;args&#x27;: [&#x27;&#x27;], &#x27;socket_timeout&#x27;: 5, &#x27;ssl_ca_certificate&#x27;: None, &#x27;scheduler&#x27;: None, &#x27;interfaces&#x27;: None, &#x27;ssl_private_key&#x27;: &#x27;&#x27;, &#x27;gae&#x27;: None, &#x27;password&#x27;: &#x27;******&#x27;, &#x27;request_queue_size&#x27;: 5, &#x27;ssl_certificate&#x27;: &#x27;&#x27;, &#x27;cronjob&#x27;: False, &#x27;numthreads&#x27;: None, &#x27;quiet&#x27;: False, &#x27;import_models&#x27;: False, &#x27;timeout&#x27;: 10, &#x27;plain&#x27;: False, &#x27;nobanner&#x27;: False}&gt;</div></td></tr><tr><td style="font-weight:bold;vertical-align:top;">db_sessions</td><td style="vertical-align:top;">:</td><td><div>set([])</div></td></tr><tr><td style="font-weight:bold;vertical-align:top;">debugging</td><td style="vertical-align:top;">:</td><td><div>True</div></td></tr><tr><td style="font-weight:bold;vertical-align:top;">gluon_parent</td><td style="vertical-align:top;">:</td><td><div>C:\\Users\\Kevin\\Desktop\\web2py</div></td></tr><tr><td style="font-weight:bold;vertical-align:top;">http_accept</td><td style="vertical-align:top;">:</td><td><div>text/html,application/xhtml+xml,application/xml;q=0.9,image/webp,image/apng,*/*;q=0.8</div></td></tr><tr><td style="font-weight:bold;vertical-align:top;">http_accept_encoding</td><td style="vertical-align:top;">:</td><td><div>gzip, deflate, br</div></td></tr><tr><td style="font-weight:bold;vertical-align:top;">http_accept_language</td><td style="vertical-align:top;">:</td><td><div>es-ES,es;q=0.9</div></td></tr><tr><td style="font-weight:bold;vertical-align:top;">http_cache_control</td><td style="vertical-align:top;">:</td><td><div>max-age=0</div></td></tr><tr><td style="font-weight:bold;vertical-align:top;">http_connection</td><td style="vertical-align:top;">:</td><td><div>keep-alive</div></td></tr><tr><td style="font-weight:bold;vertical-align:top;">http_cookie</td><td style="vertical-align:top;">:</td><td><div>session_id_welcome=127.0.0.1-e22b2db1-925a-40d6-8db3-8caaf8b2cecd; session_id_admin=127.0.0.1-2de2a45a-9970-480c-94ce-e05a87d1c9ac; session_id_escuela=127.0.0.1-b38e3250-5c4c-47a3-9c5c-bfd05f25d98f</div></td></tr><tr><td style="font-weight:bold;vertical-align:top;">http_host</td><td style="vertical-align:top;">:</td><td><div>127.0.0.1:8000</div></td></tr><tr><td style="font-weight:bold;vertical-align:top;">http_upgrade_insecure_requests</td><td style="vertical-align:top;">:</td><td><div>1</div></td></tr><tr><td style="font-weight:bold;vertical-align:top;">http_user_agent</td><td style="vertical-align:top;">:</td><td><div>Mozilla/5.0 (Windows NT 10.0; Win64; x64) AppleWebKit/537.36 (KHTML, like Gecko) Chrome/66.0.3359.181 Safari/537.36</div></td></tr><tr><td style="font-weight:bold;vertical-align:top;">is_jython</td><td style="vertical-align:top;">:</td><td><div>False</div></td></tr><tr><td style="font-weight:bold;vertical-align:top;">is_pypy</td><td style="vertical-align:top;">:</td><td><div>False</div></td></tr><tr><td style="font-weight:bold;vertical-align:top;">is_source</td><td style="vertical-align:top;">:</td><td><div>True</div></td></tr><tr><td style="font-weight:bold;vertical-align:top;">local_hosts</td><td style="vertical-align:top;">:</td><td><div><table><tr><td><div>192.168.88.1</div></td></tr><tr><td><div>fe80::d12:3b01:f30e:3f89%4</div></td></tr><tr><td><div>192.168.225.1</div></td></tr><tr><td><div>::ffff:127.0.0.1</div></td></tr><tr><td><div>::1</div></td></tr><tr><td><div>fe80::e9af:3353:b35a:a7cd%5</div></td></tr><tr><td><div>LAPTOP-PEP826GJ</div></td></tr><tr><td><div>127.0.0.1</div></td></tr></table></div></td></tr><tr><td style="font-weight:bold;vertical-align:top;">path_info</td><td style="vertical-align:top;">:</td><td><div>/Escuela/admin/cursoxgrado</div></td></tr><tr><td style="font-weight:bold;vertical-align:top;">query_string</td><td style="vertical-align:top;">:</td><td><div>keywords=</div></td></tr><tr><td style="font-weight:bold;vertical-align:top;">remote_addr</td><td style="vertical-align:top;">:</td><td><div>127.0.0.1</div></td></tr><tr><td style="font-weight:bold;vertical-align:top;">remote_port</td><td style="vertical-align:top;">:</td><td><div>49757</div></td></tr><tr><td style="font-weight:bold;vertical-align:top;">request_method</td><td style="vertical-align:top;">:</td><td><div>GET</div></td></tr><tr><td style="font-weight:bold;vertical-align:top;">request_uri</td><td style="vertical-align:top;">:</td><td><div>/Escuela/admin/cursoxgrado?keywords=</div></td></tr><tr><td style="font-weight:bold;vertical-align:top;">script_name</td><td style="vertical-align:top;">:</td><td><div></div></td></tr><tr><td style="font-weight:bold;vertical-align:top;">server_name</td><td style="vertical-align:top;">:</td><td><div>LAPTOP-PEP826GJ</div></td></tr><tr><td style="font-weight:bold;vertical-align:top;">server_port</td><td style="vertical-align:top;">:</td><td><div>8000</div></td></tr><tr><td style="font-weight:bold;vertical-align:top;">server_protocol</td><td style="vertical-align:top;">:</td><td><div>HTTP/1.1</div></td></tr><tr><td style="font-weight:bold;vertical-align:top;">server_software</td><td style="vertical-align:top;">:</td><td><div>Rocket 1.2.6</div></td></tr><tr><td style="font-weight:bold;vertical-align:top;">web2py_path</td><td style="vertical-align:top;">:</td><td><div>C:\\Users\\Kevin\\Desktop\\web2py</div></td></tr><tr><td style="font-weight:bold;vertical-align:top;">web2py_version</td><td style="vertical-align:top;">:</td><td><div>2.14.6-stable+timestamp.2016.05.10.00.21.47</div></td></tr><tr><td style="font-weight:bold;vertical-align:top;">wsgi.errors</td><td style="vertical-align:top;">:</td><td><div>&lt;open file &#x27;&lt;stderr&gt;&#x27;, mode &#x27;w&#x27; at 0x032FD0D0&gt;</div></td></tr><tr><td style="font-weight:bold;vertical-align:top;">wsgi.file_wrapper</td><td style="vertical-align:top;">:</td><td><div>&lt;class wsgiref.util.FileWrapper at 0x042E1A78&gt;</div></td></tr><tr><td style="font-weight:bold;vertical-align:top;">wsgi.input</td><td style="vertical-align:top;">:</td><td><div>&lt;socket._fileobject object at 0x0A8BA2B0&gt;</div></td></tr><tr><td style="font-weight:bold;vertical-align:top;">wsgi.multiprocess</td><td style="vertical-align:top;">:</td><td><div>False</div></td></tr><tr><td style="font-weight:bold;vertical-align:top;">wsgi.multithread</td><td style="vertical-align:top;">:</td><td><div>True</div></td></tr><tr><td style="font-weight:bold;vertical-align:top;">wsgi.run_once</td><td style="vertical-align:top;">:</td><td><div>False</div></td></tr><tr><td style="font-weight:bold;vertical-align:top;">wsgi.url_scheme</td><td style="vertical-align:top;">:</td><td><div>http</div></td></tr><tr><td style="font-weight:bold;vertical-align:top;">wsgi.version</td><td style="vertical-align:top;">:</td><td><div><table><tr><td><div>1</div></td></tr><tr><td><div>0</div></td></tr></table></div></td></tr><tr><td style="font-weight:bold;vertical-align:top;">wsgi_errors</td><td style="vertical-align:top;">:</td><td><div>&lt;open file &#x27;&lt;stderr&gt;&#x27;, mode &#x27;w&#x27; at 0x032FD0D0&gt;</div></td></tr><tr><td style="font-weight:bold;vertical-align:top;">wsgi_file_wrapper</td><td style="vertical-align:top;">:</td><td><div>&lt;class wsgiref.util.FileWrapper at 0x042E1A78&gt;</div></td></tr><tr><td style="font-weight:bold;vertical-align:top;">wsgi_input</td><td style="vertical-align:top;">:</td><td><div>&lt;socket._fileobject object at 0x0A8BA2B0&gt;</div></td></tr><tr><td style="font-weight:bold;vertical-align:top;">wsgi_multiprocess</td><td style="vertical-align:top;">:</td><td><div>False</div></td></tr><tr><td style="font-weight:bold;vertical-align:top;">wsgi_multithread</td><td style="vertical-align:top;">:</td><td><div>True</div></td></tr><tr><td style="font-weight:bold;vertical-align:top;">wsgi_run_once</td><td style="vertical-align:top;">:</td><td><div>False</div></td></tr><tr><td style="font-weight:bold;vertical-align:top;">wsgi_url_scheme</td><td style="vertical-align:top;">:</td><td><div>http</div></td></tr><tr><td style="font-weight:bold;vertical-align:top;">wsgi_version</td><td style="vertical-align:top;">:</td><td><div><table><tr><td><div>1</div></td></tr><tr><td><div>0</div></td></tr></table></div></td></tr></table></div></td></tr><tr><td style="font-weight:bold;vertical-align:top;">extension</td><td style="vertical-align:top;">:</td><td><div>html</div></td></tr><tr><td style="font-weight:bold;vertical-align:top;">folder</td><td style="vertical-align:top;">:</td><td><div>C:\\Users\\Kevin\\Desktop\\web2py\\applications\\Escuela\\</div></td></tr><tr><td style="font-weight:bold;vertical-align:top;">function</td><td style="vertical-align:top;">:</td><td><div>cursoxgrado</div></td></tr><tr><td style="font-weight:bold;vertical-align:top;">global_settings</td><td style="vertical-align:top;">:</td><td><div><table><tr><td style="font-weight:bold;vertical-align:top;">app_folders</td><td style="vertical-align:top;">:</td><td><div>set([&#x27;C:\\\\Users\\\\Kevin\\\\Desktop\\\\web2py\\\\applications\\\\admin\\\\&#x27;, &#x27;C:\\\\Users\\\\Kevin\\\\Desktop\\\\web2py\\\\applications\\\\welcome\\\\&#x27;, &#x27;C:\\\\Users\\\\Kevin\\\\Desktop\\\\web2py\\\\applications\\\\Escuela\\\\&#x27;])</div></td></tr><tr><td style="font-weight:bold;vertical-align:top;">applications_parent</td><td style="vertical-align:top;">:</td><td><div>C:\\Users\\Kevin\\Desktop\\web2py</div></td></tr><tr><td style="font-weight:bold;vertical-align:top;">cmd_args</td><td style="vertical-align:top;">:</td><td><div><table></table></div></td></tr><tr><td style="font-weight:bold;vertical-align:top;">cmd_options</td><td style="vertical-align:top;">:</td><td><div>&lt;Values at 0x4325c60: {&#x27;verbose&#x27;: False, &#x27;ip&#x27;: &#x27;127.0.0.1&#x27;, &#x27;debuglevel&#x27;: 30, &#x27;with_scheduler&#x27;: False, &#x27;shutdown_timeout&#x27;: 5, &#x27;taskbar&#x27;: False, &#x27;with_coverage&#x27;: False, &#x27;pid_filename&#x27;: &#x27;httpserver.pid&#x27;, &#x27;maxthreads&#x27;: None, &#x27;softcron&#x27;: False, &#x27;server_name&#x27;: &#x27;LAPTOP-PEP826GJ&#x27;, &#x27;bpython&#x27;: False, &#x27;nogui&#x27;: False, &#x27;port&#x27;: 8000, &#x27;print_errors&#x27;: False, &#x27;extcron&#x27;: False, &#x27;runcron&#x27;: False, &#x27;run_system_tests&#x27;: False, &#x27;test&#x27;: None, &#x27;folder&#x27;: &#x27;C:\\\\Users\\\\Kevin\\\\Desktop\\\\web2py&#x27;, &#x27;config&#x27;: &#x27;&#x27;, &#x27;minthreads&#x27;: None, &#x27;shell&#x27;: None, &#x27;run&#x27;: &#x27;&#x27;, &#x27;log_filename&#x27;: &#x27;httpserver.log&#x27;, &#x27;profiler_dir&#x27;: None, &#x27;args&#x27;: [&#x27;&#x27;], &#x27;socket_timeout&#x27;: 5, &#x27;ssl_ca_certificate&#x27;: None, &#x27;scheduler&#x27;: None, &#x27;interfaces&#x27;: None, &#x27;ssl_private_key&#x27;: &#x27;&#x27;, &#x27;gae&#x27;: None, &#x27;password&#x27;: &#x27;******&#x27;, &#x27;request_queue_size&#x27;: 5, &#x27;ssl_certificate&#x27;: &#x27;&#x27;, &#x27;cronjob&#x27;: False, &#x27;numthreads&#x27;: None, &#x27;quiet&#x27;: False, &#x27;import_models&#x27;: False, &#x27;timeout&#x27;: 10, &#x27;plain&#x27;: False, &#x27;nobanner&#x27;: False}&gt;</div></td></tr><tr><td style="font-weight:bold;vertical-align:top;">db_sessions</td><td style="vertical-align:top;">:</td><td><div>set([])</div></td></tr><tr><td style="font-weight:bold;vertical-align:top;">debugging</td><td style="vertical-align:top;">:</td><td><div>True</div></td></tr><tr><td style="font-weight:bold;vertical-align:top;">gluon_parent</td><td style="vertical-align:top;">:</td><td><div>C:\\Users\\Kevin\\Desktop\\web2py</div></td></tr><tr><td style="font-weight:bold;vertical-align:top;">is_jython</td><td style="vertical-align:top;">:</td><td><div>False</div></td></tr><tr><td style="font-weight:bold;vertical-align:top;">is_pypy</td><td style="vertical-align:top;">:</td><td><div>False</div></td></tr><tr><td style="font-weight:bold;vertical-align:top;">is_source</td><td style="vertical-align:top;">:</td><td><div>True</div></td></tr><tr><td style="font-weight:bold;vertical-align:top;">local_hosts</td><td style="vertical-align:top;">:</td><td><div><table><tr><td><div>192.168.88.1</div></td></tr><tr><td><div>fe80::d12:3b01:f30e:3f89%4</div></td></tr><tr><td><div>192.168.225.1</div></td></tr><tr><td><div>::ffff:127.0.0.1</div></td></tr><tr><td><div>::1</div></td></tr><tr><td><div>fe80::e9af:3353:b35a:a7cd%5</div></td></tr><tr><td><div>LAPTOP-PEP826GJ</div></td></tr><tr><td><div>127.0.0.1</div></td></tr></table></div></td></tr><tr><td style="font-weight:bold;vertical-align:top;">web2py_version</td><td style="vertical-align:top;">:</td><td><div>2.14.6-stable+timestamp.2016.05.10.00.21.47</div></td></tr></table></div></td></tr><tr><td style="font-weight:bold;vertical-align:top;">is_https</td><td style="vertical-align:top;">:</td><td><div>False</div></td></tr><tr><td style="font-weight:bold;vertical-align:top;">is_local</td><td style="vertical-align:top;">:</td><td><div>True</div></td></tr><tr><td style="font-weight:bold;vertical-align:top;">is_restful</td><td style="vertical-align:top;">:</td><td><div>False</div></td></tr><tr><td style="font-weight:bold;vertical-align:top;">is_scheduler</td><td style="vertical-align:top;">:</td><td><div>False</div></td></tr><tr><td style="font-weight:bold;vertical-align:top;">is_shell</td><td style="vertical-align:top;">:</td><td><div>False</div></td></tr><tr><td style="font-weight:bold;vertical-align:top;">now</td><td style="vertical-align:top;">:</td><td><div>datetime.datetime(2018, 5, 25, 11, 24, 4, 120000)</div></td></tr><tr><td style="font-weight:bold;vertical-align:top;">raw_args</td><td style="vertical-align:top;">:</td><td><div></div></td></tr><tr><td style="font-weight:bold;vertical-align:top;">raw_extension</td><td style="vertical-align:top;">:</td><td><div>None</div></td></tr><tr><td style="font-weight:bold;vertical-align:top;">url</td><td style="vertical-align:top;">:</td><td><div>/Escuela/admin/cursoxgrado</div></td></tr><tr><td style="font-weight:bold;vertical-align:top;">utcnow</td><td style="vertical-align:top;">:</td><td><div>datetime.datetime(2018, 5, 25, 17, 24, 4, 120000)</div></td></tr><tr><td style="font-weight:bold;vertical-align:top;">wsgi</td><td style="vertical-align:top;">:</td><td><div>&lt;gluon.main.LazyWSGI object at 0x0A3C9730&gt;</div></td></tr></table></div>'
tRp58
sS'frames'
p59
(lp60
(dp61
S'file'
p62
S'C:\\Users\\Kevin\\Desktop\\web2py\\gluon\\restricted.py'
p63
sS'dump'
p64
(dp65
S'environment'
p66
S"{'A': <class 'gluon.html.A'>, 'ANY_OF': <class 'gluon.validators.ANY_OF'>, 'ASSIGNJS': <function ASSIGNJS>, 'AppConfig': <function AppConfig>, 'Asignacion': <function Asignacion>, 'Auth': <class 'gluon.tools.Auth'>, 'B': <class 'gluon.html.B'>, 'BEAUTIFY': <class 'gluon.html.BEAUTIFY'>, 'BODY': <class 'gluon.html.BODY'>, 'BR': <class 'gluon.html.BR'>, ...}"
p67
sS'ccode'
p68
S'<code object <module> at 0A7151D0, file "C:\\User...plications\\Escuela\\controllers/admin.py", line 3>'
p69
ssS'lnum'
p70
I227
sS'lines'
p71
(dp72
I224
S'            ccode = code'
p73
sI225
S'        else:'
p74
sI226
S'            ccode = compile2(code, layer)'
p75
sI227
S'        exec ccode in environment'
p76
sI228
S'    except HTTP:'
p77
sI229
S'        raise'
p78
sI230
S'    except RestrictedError:'
p79
sI231
S'        # do not encapsulate (obfuscate) the original RestrictedError'
p80
sI222
S'    try:'
p81
sI223
S'        if isinstance(code, types.CodeType):'
p82
ssS'call'
p83
S"(code='# -*- coding: utf-8 -*-\\n# intente algo como\\ndef ...d)\\n\\nresponse._vars=response._caller(cursoxgrado)\\n', environment={'A': <class 'gluon.html.A'>, 'ANY_OF': <class 'gluon.validators.ANY_OF'>, 'ASSIGNJS': <function ASSIGNJS>, 'AppConfig': <function AppConfig>, 'Asignacion': <function Asignacion>, 'Auth': <class 'gluon.tools.Auth'>, 'B': <class 'gluon.html.B'>, 'BEAUTIFY': <class 'gluon.html.BEAUTIFY'>, 'BODY': <class 'gluon.html.BODY'>, 'BR': <class 'gluon.html.BR'>, ...}, layer=r'C:\\Users\\Kevin\\Desktop\\web2py\\applications\\Escuela\\controllers/admin.py')"
p84
sS'func'
p85
S'restricted'
p86
sa(dp87
g62
S'C:\\Users\\Kevin\\Desktop\\web2py\\applications\\Escuela\\controllers\\admin.py'
p88
sg64
(dp89
sg70
I113
sg71
(dp90
I102
S'    idregistro = None'
p91
sI103
S'    if enviar != None:'
p92
sI104
S'        existe = db((db.cursoxgrado.idcurso == curso) & (db.cursoxgrado.idgrado == grado)).select()'
p93
sI105
S'        if existe:'
p94
sI106
S'            gradoid = "Curso ya fue asignado a este grado"'
p95
sI107
S'        else:'
p96
sI108
S'            idregistro = db.cursoxgrado.insert(idcurso = curso, idgrado = grado)'
p97
sI109
S'            gradoid = "Curso Asignado Exitosamente!"'
p98
sI110
S'    grid = SQLFORM.grid(db.curso.descripcion, db.grado.descripcion)'
p99
sI111
S'    return dict(grid = grid, gradoid = gradoid)'
p100
ssg83
S'()'
p101
sg85
S'<module>'
p102
sa(dp103
g62
S'C:\\Users\\Kevin\\Desktop\\web2py\\gluon\\globals.py'
p104
sg64
(dp105
S'self'
p106
S'undefined'
p107
sS'f'
S'<function cursoxgrado>'
p108
ssg70
I417
sg71
(dp109
I416
S'        self._vars = None'
p110
sI417
S'        self._caller = lambda f: f()'
p111
sI418
S'        self._view_environment = None'
p112
sI419
S'        self._custom_commit = None'
p113
sI420
S'        self._custom_rollback = None'
p114
sI421
S"        self.generic_patterns = ['*']"
p115
sI412
S"        self.flash = ''            # used by the default view layout"
p116
sI413
S'        self.meta = Storage()      # used by web2py_ajax.html'
p117
sI414
S'        self.menu = []             # used by the default view layout'
p118
sI415
S'        self.files = []            # used by web2py_ajax.html'
p119
ssg83
S'(f=<function cursoxgrado>)'
p120
sg85
S'<lambda>'
p121
sa(dp122
g62
S'C:\\Users\\Kevin\\Desktop\\web2py\\applications\\Escuela\\controllers\\admin.py'
p123
sg64
(dp124
S'db.grado.descripcion'
p125
S'<pydal.objects.Field object>'
p126
sS'db.grado'
p127
S'<Table grado (id, descripcion)>'
p128
sS'SQLFORM.grid'
p129
S'<function grid>'
p130
sS'global SQLFORM'
p131
S"<class 'gluon.sqlhtml.SQLFORM'>"
p132
sS'db.curso'
p133
S'<Table curso (id, descripcion, idempleado)>'
p134
sS'db.curso.descripcion'
p135
S'<pydal.objects.Field object>'
p136
sS'grid'
p137
g107
sS'global db'
p138
S'<DAL uri="sqlite://storage.sqlite">'
p139
ssg70
I110
sg71
(dp140
I102
S'    idregistro = None'
p141
sI103
S'    if enviar != None:'
p142
sI104
S'        existe = db((db.cursoxgrado.idcurso == curso) & (db.cursoxgrado.idgrado == grado)).select()'
p143
sI105
S'        if existe:'
p144
sI106
S'            gradoid = "Curso ya fue asignado a este grado"'
p145
sI107
S'        else:'
p146
sI108
S'            idregistro = db.cursoxgrado.insert(idcurso = curso, idgrado = grado)'
p147
sI109
S'            gradoid = "Curso Asignado Exitosamente!"'
p148
sI110
S'    grid = SQLFORM.grid(db.curso.descripcion, db.grado.descripcion)'
p149
sI111
S'    return dict(grid = grid, gradoid = gradoid)'
p150
ssg83
S'()'
p151
sg85
S'cursoxgrado'
p152
sa(dp153
g62
S'C:\\Users\\Kevin\\Desktop\\web2py\\gluon\\sqlhtml.py'
p154
sg64
(dp155
S'fields'
p156
S'<pydal.objects.Field object>'
p157
sS'f.tablename'
p158
g107
sS'tablenames'
p159
S"['curso']"
p160
sS'columns'
p161
g107
sS'f'
S'<pydal.objects.Expression object>'
p162
ssg70
I2227
sg71
(dp163
I2222
S'            # add missing tablename to virtual fields'
p164
sI2223
S'            for table in tables:'
p165
sI2224
S'                for k, f in table.iteritems():'
p166
sI2225
S'                    if isinstance(f, Field.Virtual):'
p167
sI2226
S'                        f.tablename = table._tablename'
p168
sI2227
S'            columns = [f for f in fields if f.tablename in tablenames]'
p169
sI2228
S'        else:'
p170
sI2229
S'            fields = []'
p171
sI2230
S'            columns = []'
p172
sI2231
S"            filter1 = lambda f: isinstance(f, Field) and f.type != 'blob'"
p173
ssg83
S"(query=<pydal.objects.Field object>, fields=<pydal.objects.Field object>, field_id=None, left=None, headers={}, orderby=None, groupby=None, searchable=True, sortable=True, paginate=20, deletable=None, editable=None, details=True, selectable=None, create=None, csv=True, links=None, links_in_grid=True, upload='<default>', args=[], user_signature=True, maxtextlengths={}, maxtextlength=20, onvalidation=None, onfailure=None, oncreate=None, onupdate=None, ondelete=None, sorter_icons=(<gluon.html.XML object>, <gluon.html.XML object>), ui={'button': 'button btn btn-default', 'buttonadd': 'icon plus icon-plus glyphicon glyphicon-plus', 'buttonback': 'icon leftarrow icon-arrow-left glyphicon glyphicon-arrow-left', 'buttondelete': 'icon trash icon-trash glyphicon glyphicon-trash', 'buttonedit': 'icon pen icon-pencil glyphicon glyphicon-pencil', 'buttonexport': 'icon downarrow icon-download glyphicon glyphicon-download', 'buttontable': 'icon rightarrow icon-arrow-right glyphicon glyphicon-arrow-right', 'buttontext': 'buttontext button', 'buttonview': 'icon magnifier icon-zoom-in glyphicon glyphicon-zoom-in', 'content': '', ...}, showbuttontext=True, _class='web2py_grid', formname='web2py_grid', search_widget='default', advanced_search=True, ignore_rw=False, formstyle='bootstrap3_inline', exportclasses=None, formargs={}, createargs={}, editargs={}, viewargs={}, selectable_submit_button='Submit', buttons_placement='right', links_placement='right', noconfirm=False, cache_count=None, client_side_delete=False, ignore_common_filters=None, auto_pagination=True, use_cursor=False)"
p174
sg85
S'grid'
p175
sasS'pyver'
p176
S'Python 2.7.13: C:\\Python27\\python.exe (prefix: C:\\Python27)'
p177
sS'session'
p178
g57
(S's<\x01\x00\x00<div><table><tr><td style="font-weight:bold;vertical-align:top;">last_orderby</td><td style="vertical-align:top;">:</td><td><div>None</div></td></tr><tr><td style="font-weight:bold;vertical-align:top;">last_query</td><td style="vertical-align:top;">:</td><td><div>db.cursoxgrado.id&gt;0</div></td></tr></table></div>'
tRp179
sS'etype'
p180
S"<type 'exceptions.AttributeError'>"
p181
sS'date'
p182
S'Fri May 25 11:24:04 2018'
p183
sS'response'
p184
g57
(S'sS)\x00\x00<div><table><tr><td style="font-weight:bold;vertical-align:top;">body</td><td style="vertical-align:top;">:</td><td><div>&lt;cStringIO.StringO object at 0x0A3C9D80&gt;</div></td></tr><tr><td style="font-weight:bold;vertical-align:top;">cookies</td><td style="vertical-align:top;">:</td><td><div><table><tr><td style="font-weight:bold;vertical-align:top;">session_id_escuela</td><td style="vertical-align:top;">:</td><td><div>127.0.0.1-b38e3250-5c4c-47a3-9c5c-bfd05f25d98f<table><tr><td style="font-weight:bold;vertical-align:top;">comment</td><td style="vertical-align:top;">:</td><td><div></div></td></tr><tr><td style="font-weight:bold;vertical-align:top;">domain</td><td style="vertical-align:top;">:</td><td><div></div></td></tr><tr><td style="font-weight:bold;vertical-align:top;">expires</td><td style="vertical-align:top;">:</td><td><div></div></td></tr><tr><td style="font-weight:bold;vertical-align:top;">httponly</td><td style="vertical-align:top;">:</td><td><div></div></td></tr><tr><td style="font-weight:bold;vertical-align:top;">max-age</td><td style="vertical-align:top;">:</td><td><div></div></td></tr><tr><td style="font-weight:bold;vertical-align:top;">path</td><td style="vertical-align:top;">:</td><td><div>/</div></td></tr><tr><td style="font-weight:bold;vertical-align:top;">secure</td><td style="vertical-align:top;">:</td><td><div></div></td></tr><tr><td style="font-weight:bold;vertical-align:top;">version</td><td style="vertical-align:top;">:</td><td><div></div></td></tr></table></div></td></tr></table></div></td></tr><tr><td style="font-weight:bold;vertical-align:top;">delimiters</td><td style="vertical-align:top;">:</td><td><div><table><tr><td><div>{{</div></td></tr><tr><td><div>}}</div></td></tr></table></div></td></tr><tr><td style="font-weight:bold;vertical-align:top;">files</td><td style="vertical-align:top;">:</td><td><div><table></table></div></td></tr><tr><td style="font-weight:bold;vertical-align:top;">flash</td><td style="vertical-align:top;">:</td><td><div></div></td></tr><tr><td style="font-weight:bold;vertical-align:top;">form_label_separator</td><td style="vertical-align:top;">:</td><td><div></div></td></tr><tr><td style="font-weight:bold;vertical-align:top;">formstyle</td><td style="vertical-align:top;">:</td><td><div>bootstrap3_inline</div></td></tr><tr><td style="font-weight:bold;vertical-align:top;">generic_patterns</td><td style="vertical-align:top;">:</td><td><div><table><tr><td><div>*</div></td></tr></table></div></td></tr><tr><td style="font-weight:bold;vertical-align:top;">google_analytics_id</td><td style="vertical-align:top;">:</td><td><div>None</div></td></tr><tr><td style="font-weight:bold;vertical-align:top;">headers</td><td style="vertical-align:top;">:</td><td><div><table><tr><td style="font-weight:bold;vertical-align:top;">X-Powered-By</td><td style="vertical-align:top;">:</td><td><div>web2py</div></td></tr></table></div></td></tr><tr><td style="font-weight:bold;vertical-align:top;">logo</td><td style="vertical-align:top;">:</td><td><div><a href="http://www.google.com"><img src="/Escuela/static/images/LogoSample_ByTailorBrands.jpg" width="60" /></a></div></td></tr><tr><td style="font-weight:bold;vertical-align:top;">menu</td><td style="vertical-align:top;">:</td><td><div><table><tr><td><div><table><tr><td><div>Inicio</div></td></tr><tr><td><div>False</div></td></tr><tr><td><div>/Escuela/default/index</div></td></tr><tr><td><div><table></table></div></td></tr></table></div></td></tr><tr><td><div><table><tr><td><div>Alumnos</div></td></tr><tr><td><div>False</div></td></tr><tr><td><div>/Escuela/default/index</div></td></tr><tr><td><div><table><tr><td><div><table><tr><td><div>Ingreso de alumnos</div></td></tr><tr><td><div>False</div></td></tr><tr><td><div>/Escuela/admin/ingresoalumno</div></td></tr></table></div></td></tr><tr><td><div><table><tr><td><div>Asignacion de alumnos</div></td></tr><tr><td><div>False</div></td></tr><tr><td><div>/Escuela/admin/Asignacion</div></td></tr></table></div></td></tr><tr><td><div><table><tr><td><div>Ingreso de notas</div></td></tr><tr><td><div>False</div></td></tr><tr><td><div>/Escuela/admin/ingresonotas</div></td></tr></table></div></td></tr><tr><td><div><table><tr><td><div>Ver notas por alumno</div></td></tr><tr><td><div>False</div></td></tr><tr><td><div>/Escuela/admin/vernota</div></td></tr></table></div></td></tr><tr><td><div><table><tr><td><div>Ver alumnos asignados</div></td></tr><tr><td><div>False</div></td></tr><tr><td><div>/Escuela/admin/alumnoasignado</div></td></tr></table></div></td></tr></table></div></td></tr></table></div></td></tr><tr><td><div><table><tr><td><div>Grados</div></td></tr><tr><td><div>False</div></td></tr><tr><td><div>/Escuela/default/index</div></td></tr><tr><td><div><table><tr><td><div><table><tr><td><div>Crear Grado</div></td></tr><tr><td><div>False</div></td></tr><tr><td><div>/Escuela/admin/creargrado</div></td></tr></table></div></td></tr><tr><td><div><table><tr><td><div>Crear Seccion</div></td></tr><tr><td><div>False</div></td></tr><tr><td><div>/Escuela/admin/crearseccion</div></td></tr></table></div></td></tr><tr><td><div><table><tr><td><div>Asignar Seccion a Grado</div></td></tr><tr><td><div>False</div></td></tr><tr><td><div>/Escuela/admin/asignarsecgrad</div></td></tr></table></div></td></tr></table></div></td></tr></table></div></td></tr><tr><td><div><table><tr><td><div>Suministros</div></td></tr><tr><td><div>False</div></td></tr><tr><td><div>/Escuela/default/index</div></td></tr><tr><td><div><table><tr><td><div><table><tr><td><div>Actualizar Inventario</div></td></tr><tr><td><div>False</div></td></tr><tr><td><div>/Escuela/default/index</div></td></tr></table></div></td></tr></table></div></td></tr></table></div></td></tr><tr><td><div><table><tr><td><div>Administrativo</div></td></tr><tr><td><div>False</div></td></tr><tr><td><div>/Escuela/default/index</div></td></tr><tr><td><div><table><tr><td><div><table><tr><td><div>Agregar Empleado</div></td></tr><tr><td><div>False</div></td></tr><tr><td><div>/Escuela/admin/crearempleado</div></td></tr></table></div></td></tr><tr><td><div><table><tr><td><div>Crear Curso</div></td></tr><tr><td><div>False</div></td></tr><tr><td><div>/Escuela/admin/crearcurso</div></td></tr></table></div></td></tr><tr><td><div><table><tr><td><div>Asignar Curso a Grado</div></td></tr><tr><td><div>False</div></td></tr><tr><td><div>/Escuela/admin/cursoxgrado</div></td></tr></table></div></td></tr></table></div></td></tr></table></div></td></tr></table></div></td></tr><tr><td style="font-weight:bold;vertical-align:top;">meta</td><td style="vertical-align:top;">:</td><td><div><table><tr><td style="font-weight:bold;vertical-align:top;">author</td><td style="vertical-align:top;">:</td><td><div>Your Name &lt;you@example.com&gt;</div></td></tr><tr><td style="font-weight:bold;vertical-align:top;">description</td><td style="vertical-align:top;">:</td><td><div>a cool new app</div></td></tr><tr><td style="font-weight:bold;vertical-align:top;">generator</td><td style="vertical-align:top;">:</td><td><div>Web2py Web Framework</div></td></tr><tr><td style="font-weight:bold;vertical-align:top;">keywords</td><td style="vertical-align:top;">:</td><td><div><table><tr><td><div>web2py</div></td></tr><tr><td><div>python</div></td></tr><tr><td><div>framework</div></td></tr></table></div></td></tr></table></div></td></tr><tr><td style="font-weight:bold;vertical-align:top;">models_to_run</td><td style="vertical-align:top;">:</td><td><div><table><tr><td><div>^\\w+\\.py$</div></td></tr><tr><td><div>^admin/\\w+\\.py$</div></td></tr><tr><td><div>^admin/cursoxgrado/\\w+\\.py$</div></td></tr></table></div></td></tr><tr><td style="font-weight:bold;vertical-align:top;">postprocessing</td><td style="vertical-align:top;">:</td><td><div><table></table></div></td></tr><tr><td style="font-weight:bold;vertical-align:top;">session_client</td><td style="vertical-align:top;">:</td><td><div>127.0.0.1</div></td></tr><tr><td style="font-weight:bold;vertical-align:top;">session_cookie_compression_level</td><td style="vertical-align:top;">:</td><td><div>None</div></td></tr><tr><td style="font-weight:bold;vertical-align:top;">session_cookie_expires</td><td style="vertical-align:top;">:</td><td><div>None</div></td></tr><tr><td style="font-weight:bold;vertical-align:top;">session_data_name</td><td style="vertical-align:top;">:</td><td><div>session_data_escuela</div></td></tr><tr><td style="font-weight:bold;vertical-align:top;">session_file</td><td style="vertical-align:top;">:</td><td><div>&lt;open file &#x27;C:\\\\Users\\\\Kevin\\\\Desktop\\\\web2py\\\\applications\\\\Escuela\\\\sessions\\\\0e0\\\\0f4\\\\127.0.0.1-b38e3250-5c4c-47a3-9c5c-bfd05f25d98f&#x27;, mode &#x27;rb+&#x27; at 0x0A6B34F0&gt;</div></td></tr><tr><td style="font-weight:bold;vertical-align:top;">session_filename</td><td style="vertical-align:top;">:</td><td><div>C:\\Users\\Kevin\\Desktop\\web2py\\applications\\Escuela\\sessions\\127.0.0.1-b38e3250-5c4c-47a3-9c5c-bfd05f25d98f</div></td></tr><tr><td style="font-weight:bold;vertical-align:top;">session_hash</td><td style="vertical-align:top;">:</td><td><div>2aac023e42780eadb19d7a5e166b5088</div></td></tr><tr><td style="font-weight:bold;vertical-align:top;">session_id</td><td style="vertical-align:top;">:</td><td><div>127.0.0.1-b38e3250-5c4c-47a3-9c5c-bfd05f25d98f</div></td></tr><tr><td style="font-weight:bold;vertical-align:top;">session_id_name</td><td style="vertical-align:top;">:</td><td><div>session_id_escuela</div></td></tr><tr><td style="font-weight:bold;vertical-align:top;">session_locked</td><td style="vertical-align:top;">:</td><td><div>True</div></td></tr><tr><td style="font-weight:bold;vertical-align:top;">session_masterapp</td><td style="vertical-align:top;">:</td><td><div>Escuela</div></td></tr><tr><td style="font-weight:bold;vertical-align:top;">session_new</td><td style="vertical-align:top;">:</td><td><div>False</div></td></tr><tr><td style="font-weight:bold;vertical-align:top;">session_storage_type</td><td style="vertical-align:top;">:</td><td><div>file</div></td></tr><tr><td style="font-weight:bold;vertical-align:top;">status</td><td style="vertical-align:top;">:</td><td><div>200</div></td></tr><tr><td style="font-weight:bold;vertical-align:top;">subtitle</td><td style="vertical-align:top;">:</td><td><div></div></td></tr><tr><td style="font-weight:bold;vertical-align:top;">title</td><td style="vertical-align:top;">:</td><td><div>Escuela</div></td></tr><tr><td style="font-weight:bold;vertical-align:top;">view</td><td style="vertical-align:top;">:</td><td><div>admin/cursoxgrado.html</div></td></tr></table></div>'
tRp185
sS'locals'
p186
(dp187
S'editargs'
p188
g45
sS'tablenames'
p189
S"['curso']"
p190
sS'links'
p191
S'None'
p192
sS'fetch_count'
p193
S'<function fetch_count>'
p194
sS'tablename'
p195
S"'curso'"
p196
sS'paginate'
p197
S'20'
p198
sS'advanced_search'
p199
S'True'
p200
sS'upload'
p201
S"'<default>'"
p202
sS'noconfirm'
p203
S'False'
p204
sS'keywords'
p205
S"''"
p206
sS'sorter_icons'
p207
S'(<gluon.html.XML object>, <gluon.html.XML object>)'
p208
sg178
S"<Storage {'_formkey[cursoxgrado/create]': ['fc38...y_grid': '/Escuela/admin/cursoxgrado?keywords='}>"
p209
sS'query'
p210
S'<pydal.objects.Field object>'
p211
sS'viewargs'
p212
g45
sS'cache_count'
p213
S'None'
p214
sS'selectable_submit_button'
p215
S"'Submit'"
p216
sS'client_side_delete'
p217
g204
sS'formstyle'
p218
S"'bootstrap3_inline'"
p219
sS'fix_orderby'
p220
S'<function fix_orderby>'
p221
sS'maxtextlength'
p222
S'20'
p223
sS'rows'
p224
S'None'
p225
sS'searchable'
p226
g200
sS'createargs'
p227
g45
sS'create'
p228
S'None'
p229
sS'logged'
p230
S'None'
p231
sS'formargs'
p232
g45
sS'maxtextlengths'
p233
g45
sS'ignore_rw'
p234
g204
sS'user_signature'
p235
g200
sS'details'
p236
g200
sS'onvalidation'
p237
S'None'
p238
sS'url2'
p239
S'<function url2>'
p240
sS'editable'
p241
S'None'
p242
sS'_class'
p243
S"'web2py_grid'"
p244
sS'auto_pagination'
p245
g200
sS'ondelete'
p246
S'None'
p247
sS'ignore_common_filters'
p248
S'None'
p249
sS'onfailure'
p250
S'None'
p251
sS'tables'
p252
S'[<Table curso (id, descripcion, idempleado)>]'
p253
sS'use_cursor'
p254
g204
sS'field_id'
p255
S'None'
p256
sg42
S'[]'
p257
sS'db'
p258
S'<DAL uri="sqlite://storage.sqlite">'
p259
sS'deletable'
p260
S'None'
p261
sS'gridbutton'
p262
S'<function gridbutton>'
p263
sS'links_in_grid'
p264
g200
sS'selectable'
p265
S'None'
p266
sS'table'
p267
S'<Table curso (id, descripcion, idempleado)>'
p268
sg184
S"<Storage {'body': <cStringIO.StringO object at 0...t 0x0A8BA1F0>, 'view': 'admin/cursoxgrado.html'}>"
p269
sS'formname'
p270
S"'web2py_grid'"
p271
sS'orderby'
p272
S'None'
p273
sS'dbset'
p274
S'<Set (curso.descripcion IS NOT NULL)>'
p275
sS'sortable'
p276
g200
sS'left'
p277
S'None'
p278
sS'onupdate'
p279
S'None'
p280
sS'url'
p281
S'<function url>'
p282
sS'fields'
p283
S'<pydal.objects.Field object>'
p284
sS'k'
S"'_after_insert'"
p285
sS'f'
S'<pydal.objects.Expression object>'
p286
sg56
S"<Storage {'_vars': <Storage {'keywords': ''}>, '...evin\\\\Desktop\\\\web2py\\\\applications\\\\Escuela\\\\'}>"
p287
sS'wenabled'
p288
S'None'
p289
sS'T'
S'<gluon.languages.translator object>'
p290
sS'groupby'
p291
S'None'
p292
sS'headers'
p293
g45
sS'buttons_placement'
p294
S"'right'"
p295
sS'ui'
p296
S"{'button': 'button btn btn-default', 'buttonadd': 'icon plus icon-plus glyphicon glyphicon-plus', 'buttonback': 'icon leftarrow icon-arrow-left glyphicon glyphicon-arrow-left', 'buttondelete': 'icon trash icon-trash glyphicon glyphicon-trash', 'buttonedit': 'icon pen icon-pencil glyphicon glyphicon-pencil', 'buttonexport': 'icon downarrow icon-download glyphicon glyphicon-download', 'buttontable': 'icon rightarrow icon-arrow-right glyphicon glyphicon-arrow-right', 'buttontext': 'buttontext button', 'buttonview': 'icon magnifier icon-zoom-in glyphicon glyphicon-zoom-in', 'content': '', ...}"
p297
sS'referrer'
p298
S"'/Escuela/admin/cursoxgrado?keywords='"
p299
sS'links_placement'
p300
S"'right'"
p301
sS'oncreate'
p302
S'None'
p303
sS'search_widget'
p304
S"'default'"
p305
sS'csv'
p306
g200
sS'exportclasses'
p307
S'None'
p308
sS'showbuttontext'
p309
g200
sssS'traceback'
p310
S'Traceback (most recent call last):\n  File "C:\\Users\\Kevin\\Desktop\\web2py\\gluon\\restricted.py", line 227, in restricted\n    exec ccode in environment\n  File "C:\\Users\\Kevin\\Desktop\\web2py\\applications\\Escuela\\controllers/admin.py", line 113, in <module>\n  File "C:\\Users\\Kevin\\Desktop\\web2py\\gluon\\globals.py", line 417, in <lambda>\n    self._caller = lambda f: f()\n  File "C:\\Users\\Kevin\\Desktop\\web2py\\applications\\Escuela\\controllers/admin.py", line 110, in cursoxgrado\n    grid = SQLFORM.grid(db.curso.descripcion, db.grado.descripcion)\n  File "C:\\Users\\Kevin\\Desktop\\web2py\\gluon\\sqlhtml.py", line 2227, in grid\n    columns = [f for f in fields if f.tablename in tablenames]\nAttributeError: \'Expression\' object has no attribute \'tablename\'\n'
p311
s.