(dp1
S'output'
p2
S''
sS'layer'
p3
S'Framework'
p4
sS'code'
p5
S''
sS'snapshot'
p6
(dp7
S'exception'
p8
(dp9
S'__hash__'
p10
S"<method-wrapper '__hash__' of exceptions.KeyError object>"
p11
sS'__setattr__'
p12
S"<method-wrapper '__setattr__' of exceptions.KeyError object>"
p13
sS'__reduce_ex__'
p14
S'<built-in method __reduce_ex__ of exceptions.KeyError object>'
p15
sS'__getslice__'
p16
S"<method-wrapper '__getslice__' of exceptions.KeyError object>"
p17
sS'__getitem__'
p18
S"<method-wrapper '__getitem__' of exceptions.KeyError object>"
p19
sS'__setstate__'
p20
S'<built-in method __setstate__ of exceptions.KeyError object>'
p21
sS'__reduce__'
p22
S'<built-in method __reduce__ of exceptions.KeyError object>'
p23
sS'__str__'
p24
S"<method-wrapper '__str__' of exceptions.KeyError object>"
p25
sS'__format__'
p26
S'<built-in method __format__ of exceptions.KeyError object>'
p27
sS'__getattribute__'
p28
S"<method-wrapper '__getattribute__' of exceptions.KeyError object>"
p29
sS'__class__'
p30
S"<type 'exceptions.KeyError'>"
p31
sS'__unicode__'
p32
S'<built-in method __unicode__ of exceptions.KeyError object>'
p33
sS'__delattr__'
p34
S"<method-wrapper '__delattr__' of exceptions.KeyError object>"
p35
sS'__subclasshook__'
p36
S'<built-in method __subclasshook__ of type object>'
p37
sS'__repr__'
p38
S"<method-wrapper '__repr__' of exceptions.KeyError object>"
p39
sS'args'
p40
S"(r'C:\\Users\\Kevin\\Desktop\\web2py\\applications\\Escuela\\controllers/admin.py',)"
p41
sS'__dict__'
p42
S'{}'
p43
sS'__sizeof__'
p44
S'<built-in method __sizeof__ of exceptions.KeyError object>'
p45
sS'__doc__'
p46
S"'Mapping key not found.'"
p47
sS'__init__'
p48
S"<method-wrapper '__init__' of exceptions.KeyError object>"
p49
sS'__new__'
p50
S'<built-in method __new__ of type object>'
p51
ssS'evalue'
p52
S"'C:\\\\Users\\\\Kevin\\\\Desktop\\\\web2py\\\\applications\\\\Escuela\\\\controllers/admin.py'"
p53
sS'request'
p54
cgluon.html
XML_unpickle
p55
(S's\xd4m\x00\x00<div><table><tr><td style="font-weight:bold;vertical-align:top;">ajax</td><td style="vertical-align:top;">:</td><td><div>True</div></td></tr><tr><td style="font-weight:bold;vertical-align:top;">application</td><td style="vertical-align:top;">:</td><td><div>Escuela</div></td></tr><tr><td style="font-weight:bold;vertical-align:top;">args</td><td style="vertical-align:top;">:</td><td><div><table></table></div></td></tr><tr><td style="font-weight:bold;vertical-align:top;">cid</td><td style="vertical-align:top;">:</td><td><div>c445037668505</div></td></tr><tr><td style="font-weight:bold;vertical-align:top;">client</td><td style="vertical-align:top;">:</td><td><div>127.0.0.1</div></td></tr><tr><td style="font-weight:bold;vertical-align:top;">controller</td><td style="vertical-align:top;">:</td><td><div>appadmin</div></td></tr><tr><td style="font-weight:bold;vertical-align:top;">cookies</td><td style="vertical-align:top;">:</td><td><div><table><tr><td style="font-weight:bold;vertical-align:top;">session_id_admin</td><td style="vertical-align:top;">:</td><td><div>127.0.0.1-9a6badec-dc57-407c-8011-d49fe197c63c<table><tr><td style="font-weight:bold;vertical-align:top;">comment</td><td style="vertical-align:top;">:</td><td><div></div></td></tr><tr><td style="font-weight:bold;vertical-align:top;">domain</td><td style="vertical-align:top;">:</td><td><div></div></td></tr><tr><td style="font-weight:bold;vertical-align:top;">expires</td><td style="vertical-align:top;">:</td><td><div></div></td></tr><tr><td style="font-weight:bold;vertical-align:top;">httponly</td><td style="vertical-align:top;">:</td><td><div></div></td></tr><tr><td style="font-weight:bold;vertical-align:top;">max-age</td><td style="vertical-align:top;">:</td><td><div></div></td></tr><tr><td style="font-weight:bold;vertical-align:top;">path</td><td style="vertical-align:top;">:</td><td><div></div></td></tr><tr><td style="font-weight:bold;vertical-align:top;">secure</td><td style="vertical-align:top;">:</td><td><div></div></td></tr><tr><td style="font-weight:bold;vertical-align:top;">version</td><td style="vertical-align:top;">:</td><td><div></div></td></tr></table></div></td></tr><tr><td style="font-weight:bold;vertical-align:top;">session_id_blogs</td><td style="vertical-align:top;">:</td><td><div>127.0.0.1-f9c07c00-5954-40dd-b859-2175baa81853<table><tr><td style="font-weight:bold;vertical-align:top;">comment</td><td style="vertical-align:top;">:</td><td><div></div></td></tr><tr><td style="font-weight:bold;vertical-align:top;">domain</td><td style="vertical-align:top;">:</td><td><div></div></td></tr><tr><td style="font-weight:bold;vertical-align:top;">expires</td><td style="vertical-align:top;">:</td><td><div></div></td></tr><tr><td style="font-weight:bold;vertical-align:top;">httponly</td><td style="vertical-align:top;">:</td><td><div></div></td></tr><tr><td style="font-weight:bold;vertical-align:top;">max-age</td><td style="vertical-align:top;">:</td><td><div></div></td></tr><tr><td style="font-weight:bold;vertical-align:top;">path</td><td style="vertical-align:top;">:</td><td><div></div></td></tr><tr><td style="font-weight:bold;vertical-align:top;">secure</td><td style="vertical-align:top;">:</td><td><div></div></td></tr><tr><td style="font-weight:bold;vertical-align:top;">version</td><td style="vertical-align:top;">:</td><td><div></div></td></tr></table></div></td></tr><tr><td style="font-weight:bold;vertical-align:top;">session_id_escuela</td><td style="vertical-align:top;">:</td><td><div>127.0.0.1-453040de-52be-4f66-b477-ad77e63d1535<table><tr><td style="font-weight:bold;vertical-align:top;">comment</td><td style="vertical-align:top;">:</td><td><div></div></td></tr><tr><td style="font-weight:bold;vertical-align:top;">domain</td><td style="vertical-align:top;">:</td><td><div></div></td></tr><tr><td style="font-weight:bold;vertical-align:top;">expires</td><td style="vertical-align:top;">:</td><td><div></div></td></tr><tr><td style="font-weight:bold;vertical-align:top;">httponly</td><td style="vertical-align:top;">:</td><td><div></div></td></tr><tr><td style="font-weight:bold;vertical-align:top;">max-age</td><td style="vertical-align:top;">:</td><td><div></div></td></tr><tr><td style="font-weight:bold;vertical-align:top;">path</td><td style="vertical-align:top;">:</td><td><div></div></td></tr><tr><td style="font-weight:bold;vertical-align:top;">secure</td><td style="vertical-align:top;">:</td><td><div></div></td></tr><tr><td style="font-weight:bold;vertical-align:top;">version</td><td style="vertical-align:top;">:</td><td><div></div></td></tr></table></div></td></tr><tr><td style="font-weight:bold;vertical-align:top;">session_id_welcome</td><td style="vertical-align:top;">:</td><td><div>127.0.0.1-a9cf6ae9-9159-4156-b171-b77ec622eae2<table><tr><td style="font-weight:bold;vertical-align:top;">comment</td><td style="vertical-align:top;">:</td><td><div></div></td></tr><tr><td style="font-weight:bold;vertical-align:top;">domain</td><td style="vertical-align:top;">:</td><td><div></div></td></tr><tr><td style="font-weight:bold;vertical-align:top;">expires</td><td style="vertical-align:top;">:</td><td><div></div></td></tr><tr><td style="font-weight:bold;vertical-align:top;">httponly</td><td style="vertical-align:top;">:</td><td><div></div></td></tr><tr><td style="font-weight:bold;vertical-align:top;">max-age</td><td style="vertical-align:top;">:</td><td><div></div></td></tr><tr><td style="font-weight:bold;vertical-align:top;">path</td><td style="vertical-align:top;">:</td><td><div></div></td></tr><tr><td style="font-weight:bold;vertical-align:top;">secure</td><td style="vertical-align:top;">:</td><td><div></div></td></tr><tr><td style="font-weight:bold;vertical-align:top;">version</td><td style="vertical-align:top;">:</td><td><div></div></td></tr></table></div></td></tr><tr><td style="font-weight:bold;vertical-align:top;">session_id_workshop</td><td style="vertical-align:top;">:</td><td><div>127.0.0.1-d11758d0-a219-4200-8efd-15ad337ed5b4<table><tr><td style="font-weight:bold;vertical-align:top;">comment</td><td style="vertical-align:top;">:</td><td><div></div></td></tr><tr><td style="font-weight:bold;vertical-align:top;">domain</td><td style="vertical-align:top;">:</td><td><div></div></td></tr><tr><td style="font-weight:bold;vertical-align:top;">expires</td><td style="vertical-align:top;">:</td><td><div></div></td></tr><tr><td style="font-weight:bold;vertical-align:top;">httponly</td><td style="vertical-align:top;">:</td><td><div></div></td></tr><tr><td style="font-weight:bold;vertical-align:top;">max-age</td><td style="vertical-align:top;">:</td><td><div></div></td></tr><tr><td style="font-weight:bold;vertical-align:top;">path</td><td style="vertical-align:top;">:</td><td><div></div></td></tr><tr><td style="font-weight:bold;vertical-align:top;">secure</td><td style="vertical-align:top;">:</td><td><div></div></td></tr><tr><td style="font-weight:bold;vertical-align:top;">version</td><td style="vertical-align:top;">:</td><td><div></div></td></tr></table></div></td></tr></table></div></td></tr><tr><td style="font-weight:bold;vertical-align:top;">env</td><td style="vertical-align:top;">:</td><td><div><table><tr><td style="font-weight:bold;vertical-align:top;">HTTP_ACCEPT</td><td style="vertical-align:top;">:</td><td><div>*/*</div></td></tr><tr><td style="font-weight:bold;vertical-align:top;">HTTP_ACCEPT_ENCODING</td><td style="vertical-align:top;">:</td><td><div>gzip, deflate, br</div></td></tr><tr><td style="font-weight:bold;vertical-align:top;">HTTP_ACCEPT_LANGUAGE</td><td style="vertical-align:top;">:</td><td><div>es-ES,es;q=0.9</div></td></tr><tr><td style="font-weight:bold;vertical-align:top;">HTTP_CONNECTION</td><td style="vertical-align:top;">:</td><td><div>keep-alive</div></td></tr><tr><td style="font-weight:bold;vertical-align:top;">HTTP_COOKIE</td><td style="vertical-align:top;">:</td><td><div>session_id_welcome=127.0.0.1-a9cf6ae9-9159-4156-b171-b77ec622eae2; session_id_admin=127.0.0.1-9a6badec-dc57-407c-8011-d49fe197c63c; session_id_escuela=127.0.0.1-453040de-52be-4f66-b477-ad77e63d1535; session_id_workshop=127.0.0.1-d11758d0-a219-4200-8efd-15ad337ed5b4; session_id_blogs=127.0.0.1-f9c07c00-5954-40dd-b859-2175baa81853</div></td></tr><tr><td style="font-weight:bold;vertical-align:top;">HTTP_HOST</td><td style="vertical-align:top;">:</td><td><div>127.0.0.1:8000</div></td></tr><tr><td style="font-weight:bold;vertical-align:top;">HTTP_REFERER</td><td style="vertical-align:top;">:</td><td><div>http://127.0.0.1:8000/admin/default/edit/Escuela/models/db.py?id=models__db__py</div></td></tr><tr><td style="font-weight:bold;vertical-align:top;">HTTP_USER_AGENT</td><td style="vertical-align:top;">:</td><td><div>Mozilla/5.0 (Windows NT 10.0; Win64; x64) AppleWebKit/537.36 (KHTML, like Gecko) Chrome/66.0.3359.181 Safari/537.36</div></td></tr><tr><td style="font-weight:bold;vertical-align:top;">HTTP_WEB2PY_COMPONENT_ELEMENT</td><td style="vertical-align:top;">:</td><td><div>c445037668505</div></td></tr><tr><td style="font-weight:bold;vertical-align:top;">HTTP_WEB2PY_COMPONENT_LOCATION</td><td style="vertical-align:top;">:</td><td><div>http://127.0.0.1:8000/admin/default/edit/Escuela/models/db.py?id=models__db__py</div></td></tr><tr><td style="font-weight:bold;vertical-align:top;">HTTP_X_REQUESTED_WITH</td><td style="vertical-align:top;">:</td><td><div>XMLHttpRequest</div></td></tr><tr><td style="font-weight:bold;vertical-align:top;">PATH_INFO</td><td style="vertical-align:top;">:</td><td><div>/Escuela/appadmin/hooks</div></td></tr><tr><td style="font-weight:bold;vertical-align:top;">QUERY_STRING</td><td style="vertical-align:top;">:</td><td><div></div></td></tr><tr><td style="font-weight:bold;vertical-align:top;">REMOTE_ADDR</td><td style="vertical-align:top;">:</td><td><div>127.0.0.1</div></td></tr><tr><td style="font-weight:bold;vertical-align:top;">REMOTE_PORT</td><td style="vertical-align:top;">:</td><td><div>62967</div></td></tr><tr><td style="font-weight:bold;vertical-align:top;">REQUEST_METHOD</td><td style="vertical-align:top;">:</td><td><div>GET</div></td></tr><tr><td style="font-weight:bold;vertical-align:top;">SCRIPT_NAME</td><td style="vertical-align:top;">:</td><td><div></div></td></tr><tr><td style="font-weight:bold;vertical-align:top;">SERVER_NAME</td><td style="vertical-align:top;">:</td><td><div>LAPTOP-PEP826GJ</div></td></tr><tr><td style="font-weight:bold;vertical-align:top;">SERVER_PORT</td><td style="vertical-align:top;">:</td><td><div>8000</div></td></tr><tr><td style="font-weight:bold;vertical-align:top;">SERVER_PROTOCOL</td><td style="vertical-align:top;">:</td><td><div>HTTP/1.1</div></td></tr><tr><td style="font-weight:bold;vertical-align:top;">SERVER_SOFTWARE</td><td style="vertical-align:top;">:</td><td><div>Rocket 1.2.6</div></td></tr><tr><td style="font-weight:bold;vertical-align:top;">app_folders</td><td style="vertical-align:top;">:</td><td><div>set([&#x27;C:\\\\Users\\\\Kevin\\\\Desktop\\\\web2py\\\\applications\\\\admin\\\\&#x27;, &#x27;C:\\\\Users\\\\Kevin\\\\Desktop\\\\web2py\\\\applications\\\\welcome\\\\&#x27;, &#x27;C:\\\\Users\\\\Kevin\\\\Desktop\\\\web2py\\\\applications\\\\Escuela\\\\&#x27;, &#x27;C:\\\\Users\\\\Kevin\\\\Desktop\\\\web2py\\\\applications\\\\examples\\\\&#x27;, &#x27;C:\\\\Users\\\\Kevin\\\\Desktop\\\\web2py\\\\applications\\\\Blogs\\\\&#x27;, &#x27;C:\\\\Users\\\\Kevin\\\\Desktop\\\\web2py\\\\applications\\\\WorkShop\\\\&#x27;])</div></td></tr><tr><td style="font-weight:bold;vertical-align:top;">applications_parent</td><td style="vertical-align:top;">:</td><td><div>C:\\Users\\Kevin\\Desktop\\web2py</div></td></tr><tr><td style="font-weight:bold;vertical-align:top;">cmd_args</td><td style="vertical-align:top;">:</td><td><div><table></table></div></td></tr><tr><td style="font-weight:bold;vertical-align:top;">cmd_options</td><td style="vertical-align:top;">:</td><td><div>&lt;Values at 0x6190c60: {&#x27;verbose&#x27;: False, &#x27;ip&#x27;: &#x27;127.0.0.1&#x27;, &#x27;debuglevel&#x27;: 30, &#x27;with_scheduler&#x27;: False, &#x27;shutdown_timeout&#x27;: 5, &#x27;taskbar&#x27;: False, &#x27;with_coverage&#x27;: False, &#x27;pid_filename&#x27;: &#x27;httpserver.pid&#x27;, &#x27;maxthreads&#x27;: None, &#x27;softcron&#x27;: False, &#x27;server_name&#x27;: &#x27;LAPTOP-PEP826GJ&#x27;, &#x27;bpython&#x27;: False, &#x27;nogui&#x27;: False, &#x27;port&#x27;: 8000, &#x27;print_errors&#x27;: False, &#x27;extcron&#x27;: False, &#x27;runcron&#x27;: False, &#x27;run_system_tests&#x27;: False, &#x27;test&#x27;: None, &#x27;folder&#x27;: &#x27;C:\\\\Users\\\\Kevin\\\\Desktop\\\\web2py&#x27;, &#x27;config&#x27;: &#x27;&#x27;, &#x27;minthreads&#x27;: None, &#x27;shell&#x27;: None, &#x27;run&#x27;: &#x27;&#x27;, &#x27;log_filename&#x27;: &#x27;httpserver.log&#x27;, &#x27;profiler_dir&#x27;: None, &#x27;args&#x27;: [&#x27;&#x27;], &#x27;socket_timeout&#x27;: 5, &#x27;ssl_ca_certificate&#x27;: None, &#x27;scheduler&#x27;: None, &#x27;interfaces&#x27;: None, &#x27;ssl_private_key&#x27;: &#x27;&#x27;, &#x27;gae&#x27;: None, &#x27;password&#x27;: &#x27;******&#x27;, &#x27;request_queue_size&#x27;: 5, &#x27;ssl_certificate&#x27;: &#x27;&#x27;, &#x27;cronjob&#x27;: False, &#x27;numthreads&#x27;: None, &#x27;quiet&#x27;: False, &#x27;import_models&#x27;: False, &#x27;timeout&#x27;: 10, &#x27;plain&#x27;: False, &#x27;nobanner&#x27;: False}&gt;</div></td></tr><tr><td style="font-weight:bold;vertical-align:top;">db_sessions</td><td style="vertical-align:top;">:</td><td><div>set([])</div></td></tr><tr><td style="font-weight:bold;vertical-align:top;">debugging</td><td style="vertical-align:top;">:</td><td><div>True</div></td></tr><tr><td style="font-weight:bold;vertical-align:top;">gluon_parent</td><td style="vertical-align:top;">:</td><td><div>C:\\Users\\Kevin\\Desktop\\web2py</div></td></tr><tr><td style="font-weight:bold;vertical-align:top;">http_accept</td><td style="vertical-align:top;">:</td><td><div>*/*</div></td></tr><tr><td style="font-weight:bold;vertical-align:top;">http_accept_encoding</td><td style="vertical-align:top;">:</td><td><div>gzip, deflate, br</div></td></tr><tr><td style="font-weight:bold;vertical-align:top;">http_accept_language</td><td style="vertical-align:top;">:</td><td><div>es-ES,es;q=0.9</div></td></tr><tr><td style="font-weight:bold;vertical-align:top;">http_connection</td><td style="vertical-align:top;">:</td><td><div>keep-alive</div></td></tr><tr><td style="font-weight:bold;vertical-align:top;">http_cookie</td><td style="vertical-align:top;">:</td><td><div>session_id_welcome=127.0.0.1-a9cf6ae9-9159-4156-b171-b77ec622eae2; session_id_admin=127.0.0.1-9a6badec-dc57-407c-8011-d49fe197c63c; session_id_escuela=127.0.0.1-453040de-52be-4f66-b477-ad77e63d1535; session_id_workshop=127.0.0.1-d11758d0-a219-4200-8efd-15ad337ed5b4; session_id_blogs=127.0.0.1-f9c07c00-5954-40dd-b859-2175baa81853</div></td></tr><tr><td style="font-weight:bold;vertical-align:top;">http_host</td><td style="vertical-align:top;">:</td><td><div>127.0.0.1:8000</div></td></tr><tr><td style="font-weight:bold;vertical-align:top;">http_referer</td><td style="vertical-align:top;">:</td><td><div>http://127.0.0.1:8000/admin/default/edit/Escuela/models/db.py?id=models__db__py</div></td></tr><tr><td style="font-weight:bold;vertical-align:top;">http_user_agent</td><td style="vertical-align:top;">:</td><td><div>Mozilla/5.0 (Windows NT 10.0; Win64; x64) AppleWebKit/537.36 (KHTML, like Gecko) Chrome/66.0.3359.181 Safari/537.36</div></td></tr><tr><td style="font-weight:bold;vertical-align:top;">http_web2py_component_element</td><td style="vertical-align:top;">:</td><td><div>c445037668505</div></td></tr><tr><td style="font-weight:bold;vertical-align:top;">http_web2py_component_location</td><td style="vertical-align:top;">:</td><td><div>http://127.0.0.1:8000/admin/default/edit/Escuela/models/db.py?id=models__db__py</div></td></tr><tr><td style="font-weight:bold;vertical-align:top;">http_x_requested_with</td><td style="vertical-align:top;">:</td><td><div>XMLHttpRequest</div></td></tr><tr><td style="font-weight:bold;vertical-align:top;">is_jython</td><td style="vertical-align:top;">:</td><td><div>False</div></td></tr><tr><td style="font-weight:bold;vertical-align:top;">is_pypy</td><td style="vertical-align:top;">:</td><td><div>False</div></td></tr><tr><td style="font-weight:bold;vertical-align:top;">is_source</td><td style="vertical-align:top;">:</td><td><div>True</div></td></tr><tr><td style="font-weight:bold;vertical-align:top;">local_hosts</td><td style="vertical-align:top;">:</td><td><div><table><tr><td><div>fe80::3cef:fad0:416a:69a1%14</div></td></tr><tr><td><div>192.168.88.1</div></td></tr><tr><td><div>fe80::e9af:3353:b35a:a7cd%3</div></td></tr><tr><td><div>192.168.225.1</div></td></tr><tr><td><div>::ffff:127.0.0.1</div></td></tr><tr><td><div>::1</div></td></tr><tr><td><div>fe80::d12:3b01:f30e:3f89%2</div></td></tr><tr><td><div>192.168.1.5</div></td></tr><tr><td><div>LAPTOP-PEP826GJ</div></td></tr><tr><td><div>2001:0:9d38:90d7:3cef:fad0:416a:69a1</div></td></tr><tr><td><div>127.0.0.1</div></td></tr><tr><td><div>fe80::7147:c2a2:c0e1:1884%17</div></td></tr></table></div></td></tr><tr><td style="font-weight:bold;vertical-align:top;">path_info</td><td style="vertical-align:top;">:</td><td><div>/Escuela/appadmin/hooks</div></td></tr><tr><td style="font-weight:bold;vertical-align:top;">query_string</td><td style="vertical-align:top;">:</td><td><div></div></td></tr><tr><td style="font-weight:bold;vertical-align:top;">remote_addr</td><td style="vertical-align:top;">:</td><td><div>127.0.0.1</div></td></tr><tr><td style="font-weight:bold;vertical-align:top;">remote_port</td><td style="vertical-align:top;">:</td><td><div>62967</div></td></tr><tr><td style="font-weight:bold;vertical-align:top;">request_method</td><td style="vertical-align:top;">:</td><td><div>GET</div></td></tr><tr><td style="font-weight:bold;vertical-align:top;">request_uri</td><td style="vertical-align:top;">:</td><td><div>/Escuela/appadmin/hooks</div></td></tr><tr><td style="font-weight:bold;vertical-align:top;">script_name</td><td style="vertical-align:top;">:</td><td><div></div></td></tr><tr><td style="font-weight:bold;vertical-align:top;">server_name</td><td style="vertical-align:top;">:</td><td><div>LAPTOP-PEP826GJ</div></td></tr><tr><td style="font-weight:bold;vertical-align:top;">server_port</td><td style="vertical-align:top;">:</td><td><div>8000</div></td></tr><tr><td style="font-weight:bold;vertical-align:top;">server_protocol</td><td style="vertical-align:top;">:</td><td><div>HTTP/1.1</div></td></tr><tr><td style="font-weight:bold;vertical-align:top;">server_software</td><td style="vertical-align:top;">:</td><td><div>Rocket 1.2.6</div></td></tr><tr><td style="font-weight:bold;vertical-align:top;">web2py_path</td><td style="vertical-align:top;">:</td><td><div>C:\\Users\\Kevin\\Desktop\\web2py</div></td></tr><tr><td style="font-weight:bold;vertical-align:top;">web2py_version</td><td style="vertical-align:top;">:</td><td><div>2.14.6-stable+timestamp.2016.05.10.00.21.47</div></td></tr><tr><td style="font-weight:bold;vertical-align:top;">wsgi.errors</td><td style="vertical-align:top;">:</td><td><div>&lt;open file &#x27;&lt;stderr&gt;&#x27;, mode &#x27;w&#x27; at 0x04F6D0D0&gt;</div></td></tr><tr><td style="font-weight:bold;vertical-align:top;">wsgi.file_wrapper</td><td style="vertical-align:top;">:</td><td><div>&lt;class wsgiref.util.FileWrapper at 0x0614CA78&gt;</div></td></tr><tr><td style="font-weight:bold;vertical-align:top;">wsgi.input</td><td style="vertical-align:top;">:</td><td><div>&lt;socket._fileobject object at 0x0C9062B0&gt;</div></td></tr><tr><td style="font-weight:bold;vertical-align:top;">wsgi.multiprocess</td><td style="vertical-align:top;">:</td><td><div>False</div></td></tr><tr><td style="font-weight:bold;vertical-align:top;">wsgi.multithread</td><td style="vertical-align:top;">:</td><td><div>True</div></td></tr><tr><td style="font-weight:bold;vertical-align:top;">wsgi.run_once</td><td style="vertical-align:top;">:</td><td><div>False</div></td></tr><tr><td style="font-weight:bold;vertical-align:top;">wsgi.url_scheme</td><td style="vertical-align:top;">:</td><td><div>http</div></td></tr><tr><td style="font-weight:bold;vertical-align:top;">wsgi.version</td><td style="vertical-align:top;">:</td><td><div><table><tr><td><div>1</div></td></tr><tr><td><div>0</div></td></tr></table></div></td></tr><tr><td style="font-weight:bold;vertical-align:top;">wsgi_errors</td><td style="vertical-align:top;">:</td><td><div>&lt;open file &#x27;&lt;stderr&gt;&#x27;, mode &#x27;w&#x27; at 0x04F6D0D0&gt;</div></td></tr><tr><td style="font-weight:bold;vertical-align:top;">wsgi_file_wrapper</td><td style="vertical-align:top;">:</td><td><div>&lt;class wsgiref.util.FileWrapper at 0x0614CA78&gt;</div></td></tr><tr><td style="font-weight:bold;vertical-align:top;">wsgi_input</td><td style="vertical-align:top;">:</td><td><div>&lt;socket._fileobject object at 0x0C9062B0&gt;</div></td></tr><tr><td style="font-weight:bold;vertical-align:top;">wsgi_multiprocess</td><td style="vertical-align:top;">:</td><td><div>False</div></td></tr><tr><td style="font-weight:bold;vertical-align:top;">wsgi_multithread</td><td style="vertical-align:top;">:</td><td><div>True</div></td></tr><tr><td style="font-weight:bold;vertical-align:top;">wsgi_run_once</td><td style="vertical-align:top;">:</td><td><div>False</div></td></tr><tr><td style="font-weight:bold;vertical-align:top;">wsgi_url_scheme</td><td style="vertical-align:top;">:</td><td><div>http</div></td></tr><tr><td style="font-weight:bold;vertical-align:top;">wsgi_version</td><td style="vertical-align:top;">:</td><td><div><table><tr><td><div>1</div></td></tr><tr><td><div>0</div></td></tr></table></div></td></tr></table></div></td></tr><tr><td style="font-weight:bold;vertical-align:top;">extension</td><td style="vertical-align:top;">:</td><td><div>html</div></td></tr><tr><td style="font-weight:bold;vertical-align:top;">folder</td><td style="vertical-align:top;">:</td><td><div>C:\\Users\\Kevin\\Desktop\\web2py\\applications\\Escuela\\</div></td></tr><tr><td style="font-weight:bold;vertical-align:top;">function</td><td style="vertical-align:top;">:</td><td><div>hooks</div></td></tr><tr><td style="font-weight:bold;vertical-align:top;">global_settings</td><td style="vertical-align:top;">:</td><td><div><table><tr><td style="font-weight:bold;vertical-align:top;">app_folders</td><td style="vertical-align:top;">:</td><td><div>set([&#x27;C:\\\\Users\\\\Kevin\\\\Desktop\\\\web2py\\\\applications\\\\admin\\\\&#x27;, &#x27;C:\\\\Users\\\\Kevin\\\\Desktop\\\\web2py\\\\applications\\\\welcome\\\\&#x27;, &#x27;C:\\\\Users\\\\Kevin\\\\Desktop\\\\web2py\\\\applications\\\\Escuela\\\\&#x27;, &#x27;C:\\\\Users\\\\Kevin\\\\Desktop\\\\web2py\\\\applications\\\\examples\\\\&#x27;, &#x27;C:\\\\Users\\\\Kevin\\\\Desktop\\\\web2py\\\\applications\\\\Blogs\\\\&#x27;, &#x27;C:\\\\Users\\\\Kevin\\\\Desktop\\\\web2py\\\\applications\\\\WorkShop\\\\&#x27;])</div></td></tr><tr><td style="font-weight:bold;vertical-align:top;">applications_parent</td><td style="vertical-align:top;">:</td><td><div>C:\\Users\\Kevin\\Desktop\\web2py</div></td></tr><tr><td style="font-weight:bold;vertical-align:top;">cmd_args</td><td style="vertical-align:top;">:</td><td><div><table></table></div></td></tr><tr><td style="font-weight:bold;vertical-align:top;">cmd_options</td><td style="vertical-align:top;">:</td><td><div>&lt;Values at 0x6190c60: {&#x27;verbose&#x27;: False, &#x27;ip&#x27;: &#x27;127.0.0.1&#x27;, &#x27;debuglevel&#x27;: 30, &#x27;with_scheduler&#x27;: False, &#x27;shutdown_timeout&#x27;: 5, &#x27;taskbar&#x27;: False, &#x27;with_coverage&#x27;: False, &#x27;pid_filename&#x27;: &#x27;httpserver.pid&#x27;, &#x27;maxthreads&#x27;: None, &#x27;softcron&#x27;: False, &#x27;server_name&#x27;: &#x27;LAPTOP-PEP826GJ&#x27;, &#x27;bpython&#x27;: False, &#x27;nogui&#x27;: False, &#x27;port&#x27;: 8000, &#x27;print_errors&#x27;: False, &#x27;extcron&#x27;: False, &#x27;runcron&#x27;: False, &#x27;run_system_tests&#x27;: False, &#x27;test&#x27;: None, &#x27;folder&#x27;: &#x27;C:\\\\Users\\\\Kevin\\\\Desktop\\\\web2py&#x27;, &#x27;config&#x27;: &#x27;&#x27;, &#x27;minthreads&#x27;: None, &#x27;shell&#x27;: None, &#x27;run&#x27;: &#x27;&#x27;, &#x27;log_filename&#x27;: &#x27;httpserver.log&#x27;, &#x27;profiler_dir&#x27;: None, &#x27;args&#x27;: [&#x27;&#x27;], &#x27;socket_timeout&#x27;: 5, &#x27;ssl_ca_certificate&#x27;: None, &#x27;scheduler&#x27;: None, &#x27;interfaces&#x27;: None, &#x27;ssl_private_key&#x27;: &#x27;&#x27;, &#x27;gae&#x27;: None, &#x27;password&#x27;: &#x27;******&#x27;, &#x27;request_queue_size&#x27;: 5, &#x27;ssl_certificate&#x27;: &#x27;&#x27;, &#x27;cronjob&#x27;: False, &#x27;numthreads&#x27;: None, &#x27;quiet&#x27;: False, &#x27;import_models&#x27;: False, &#x27;timeout&#x27;: 10, &#x27;plain&#x27;: False, &#x27;nobanner&#x27;: False}&gt;</div></td></tr><tr><td style="font-weight:bold;vertical-align:top;">db_sessions</td><td style="vertical-align:top;">:</td><td><div>set([])</div></td></tr><tr><td style="font-weight:bold;vertical-align:top;">debugging</td><td style="vertical-align:top;">:</td><td><div>True</div></td></tr><tr><td style="font-weight:bold;vertical-align:top;">gluon_parent</td><td style="vertical-align:top;">:</td><td><div>C:\\Users\\Kevin\\Desktop\\web2py</div></td></tr><tr><td style="font-weight:bold;vertical-align:top;">is_jython</td><td style="vertical-align:top;">:</td><td><div>False</div></td></tr><tr><td style="font-weight:bold;vertical-align:top;">is_pypy</td><td style="vertical-align:top;">:</td><td><div>False</div></td></tr><tr><td style="font-weight:bold;vertical-align:top;">is_source</td><td style="vertical-align:top;">:</td><td><div>True</div></td></tr><tr><td style="font-weight:bold;vertical-align:top;">local_hosts</td><td style="vertical-align:top;">:</td><td><div><table><tr><td><div>fe80::3cef:fad0:416a:69a1%14</div></td></tr><tr><td><div>192.168.88.1</div></td></tr><tr><td><div>fe80::e9af:3353:b35a:a7cd%3</div></td></tr><tr><td><div>192.168.225.1</div></td></tr><tr><td><div>::ffff:127.0.0.1</div></td></tr><tr><td><div>::1</div></td></tr><tr><td><div>fe80::d12:3b01:f30e:3f89%2</div></td></tr><tr><td><div>192.168.1.5</div></td></tr><tr><td><div>LAPTOP-PEP826GJ</div></td></tr><tr><td><div>2001:0:9d38:90d7:3cef:fad0:416a:69a1</div></td></tr><tr><td><div>127.0.0.1</div></td></tr><tr><td><div>fe80::7147:c2a2:c0e1:1884%17</div></td></tr></table></div></td></tr><tr><td style="font-weight:bold;vertical-align:top;">web2py_version</td><td style="vertical-align:top;">:</td><td><div>2.14.6-stable+timestamp.2016.05.10.00.21.47</div></td></tr></table></div></td></tr><tr><td style="font-weight:bold;vertical-align:top;">is_https</td><td style="vertical-align:top;">:</td><td><div>False</div></td></tr><tr><td style="font-weight:bold;vertical-align:top;">is_local</td><td style="vertical-align:top;">:</td><td><div>True</div></td></tr><tr><td style="font-weight:bold;vertical-align:top;">is_restful</td><td style="vertical-align:top;">:</td><td><div>False</div></td></tr><tr><td style="font-weight:bold;vertical-align:top;">is_scheduler</td><td style="vertical-align:top;">:</td><td><div>False</div></td></tr><tr><td style="font-weight:bold;vertical-align:top;">is_shell</td><td style="vertical-align:top;">:</td><td><div>False</div></td></tr><tr><td style="font-weight:bold;vertical-align:top;">now</td><td style="vertical-align:top;">:</td><td><div>datetime.datetime(2018, 5, 23, 21, 44, 57, 70000)</div></td></tr><tr><td style="font-weight:bold;vertical-align:top;">raw_args</td><td style="vertical-align:top;">:</td><td><div></div></td></tr><tr><td style="font-weight:bold;vertical-align:top;">raw_extension</td><td style="vertical-align:top;">:</td><td><div>None</div></td></tr><tr><td style="font-weight:bold;vertical-align:top;">url</td><td style="vertical-align:top;">:</td><td><div>/Escuela/appadmin/hooks</div></td></tr><tr><td style="font-weight:bold;vertical-align:top;">utcnow</td><td style="vertical-align:top;">:</td><td><div>datetime.datetime(2018, 5, 24, 3, 44, 57, 70000)</div></td></tr><tr><td style="font-weight:bold;vertical-align:top;">wsgi</td><td style="vertical-align:top;">:</td><td><div>&lt;gluon.main.LazyWSGI object at 0x0E31C950&gt;</div></td></tr></table></div>'
tRp56
sS'frames'
p57
(lp58
(dp59
S'file'
p60
S'C:\\Users\\Kevin\\Desktop\\web2py\\gluon\\main.py'
p61
sS'dump'
p62
(dp63
S'gluon.debug.dbg.do_debug'
p64
S'<bound method Qdb.do_debug of <gluon.contrib.qdb.Qdb instance>>'
p65
sS'gluon.debug'
p66
S"<module 'gluon.debug' from 'C:\\Users\\Kevin\\Desktop\\web2py\\gluon\\debug.pyc'>"
p67
sS'gluon.debug.dbg'
p68
S'<gluon.contrib.qdb.Qdb instance>'
p69
sS'request'
p70
S"<Storage {'_vars': None, 'function': 'hooks', 'c...evin\\\\Desktop\\\\web2py\\\\applications\\\\Escuela\\\\'}>"
p71
sS'gluon'
p72
S"<module 'gluon' from 'C:\\Users\\Kevin\\Desktop\\web2py\\gluon\\__init__.pyc'>"
p73
sS'request.folder'
p74
S"r'C:\\Users\\Kevin\\Desktop\\web2py\\applications\\Escuela\\'"
p75
sS'mainpyfile'
p76
S'undefined'
p77
ssS'lnum'
p78
I447
sS'lines'
p79
(dp80
I448
S''
sI449
S'                serve_controller(request, response, session)'
p81
sI450
S''
sI451
S'            except HTTP, http_response:'
p82
sI442
S'                # ##################################################'
p83
sI443
S''
sI444
S'                if global_settings.debugging and app != "admin":'
p84
sI445
S'                    import gluon.debug'
p85
sI446
S'                    # activate the debugger'
p86
sI447
S'                    gluon.debug.dbg.do_debug(mainpyfile=request.folder)'
p87
ssS'call'
p88
S"(environ={'HTTP_ACCEPT': '*/*', 'HTTP_ACCEPT_ENCODING': 'gzip, deflate, br', 'HTTP_ACCEPT_LANGUAGE': 'es-ES,es;q=0.9', 'HTTP_CONNECTION': 'keep-alive', 'HTTP_COOKIE': 'session_id_welcome=127.0.0.1-a9cf6ae9-9159-4156-...gs=127.0.0.1-f9c07c00-5954-40dd-b859-2175baa81853', 'HTTP_HOST': '127.0.0.1:8000', 'HTTP_REFERER': 'http://127.0.0.1:8000/admin/default/edit/Escuela/models/db.py?id=models__db__py', 'HTTP_USER_AGENT': 'Mozilla/5.0 (Windows NT 10.0; Win64; x64) AppleW...L, like Gecko) Chrome/66.0.3359.181 Safari/537.36', 'HTTP_WEB2PY_COMPONENT_ELEMENT': 'c445037668505', 'HTTP_WEB2PY_COMPONENT_LOCATION': 'http://127.0.0.1:8000/admin/default/edit/Escuela/models/db.py?id=models__db__py', ...}, responder=<function responder2>)"
p89
sS'func'
p90
S'wsgibase'
p91
sa(dp92
g60
S'C:\\Users\\Kevin\\Desktop\\web2py\\gluon\\contrib\\qdb.py'
p93
sg62
(dp94
S'self'
p95
S'<gluon.contrib.qdb.Qdb instance>'
p96
sS'self.reset'
p97
S'<bound method Qdb.reset of <gluon.contrib.qdb.Qdb instance>>'
p98
ssg78
I214
sg79
(dp99
I209
S'        finally:'
p100
sI210
S'            self.waiting = False'
p101
sI211
S'        self.frame = None'
p102
sI212
S''
sI213
S'    def do_debug(self, mainpyfile=None, wait_breakpoint=1):'
p103
sI214
S'        self.reset()'
p104
sI215
S'        if not wait_breakpoint or mainpyfile:'
p105
sI216
S'            self._wait_for_mainpyfile = 1'
p106
sI217
S'            if not mainpyfile:'
p107
sI218
S'                frame = sys._getframe().f_back'
p108
ssg88
S"(self=<gluon.contrib.qdb.Qdb instance>, mainpyfile=r'C:\\Users\\Kevin\\Desktop\\web2py\\applications\\Escuela\\', wait_breakpoint=1)"
p109
sg90
S'do_debug'
p110
sa(dp111
g60
S'C:\\Users\\Kevin\\Desktop\\web2py\\gluon\\contrib\\qdb.py'
p112
sg62
(dp113
S'bdb.Bdb.reset'
p114
S'<unbound method Bdb.reset>'
p115
sS'self'
p116
S'<gluon.contrib.qdb.Qdb instance>'
p117
sS'global bdb'
p118
S"<module 'bdb' from 'C:\\Python27\\lib\\bdb.pyc'>"
p119
sS'bdb.Bdb'
p120
S'<class bdb.Bdb>'
p121
ssg78
I440
sg79
(dp122
I435
S'        assignment of the _ variable in the builtins.'
p123
sI436
S'        """'
p124
sI437
S'        self.displayhook_value = repr(obj)'
p125
sI438
S''
sI439
S'    def reset(self):'
p126
sI440
S'        bdb.Bdb.reset(self)'
p127
sI441
S'        self.waiting = False'
p128
sI442
S'        self.frame = None'
p129
sI443
S''
sI444
S'    def post_mortem(self, t=None):'
p130
ssg88
S'(self=<gluon.contrib.qdb.Qdb instance>)'
p131
sg90
S'reset'
p132
sa(dp133
g60
S'C:\\Python27\\lib\\bdb.py'
p134
sg62
(dp135
S'linecache'
p136
S"<module 'linecache' from 'C:\\Python27\\lib\\linecache.pyc'>"
p137
sS'linecache.checkcache'
p138
S'<function checkcache>'
p139
ssg78
I41
sg79
(dp140
I36
S'            self.fncache[filename] = canonic'
p141
sI37
S'        return canonic'
p142
sI38
S''
sI39
S'    def reset(self):'
p143
sI40
S'        import linecache'
p144
sI41
S'        linecache.checkcache()'
p145
sI42
S'        self.botframe = None'
p146
sI43
S'        self._set_stopinfo(None, None)'
p147
sI44
S''
sI45
S'    def trace_dispatch(self, frame, event, arg):'
p148
ssg88
S'(self=<gluon.contrib.qdb.Qdb instance>)'
p149
sg90
g132
sa(dp150
g60
S'C:\\Python27\\lib\\linecache.py'
p151
sg62
(dp152
S'global cache'
p153
S'{r\'C:\\Python27\\lib\\bdb.py\': (21714L, 1466919962.0, [\'"""Debugger basics"""\\n\', \'\\n\', \'import fnmatch\\n\', \'import sys\\n\', \'import os\\n\', \'import types\\n\', \'\\n\', \'__all__ = ["BdbQuit","Bdb","Breakpoint"]\\n\', \'\\n\', \'class BdbQuit(Exception):\\n\', \'    """Exception to give up completely"""\\n\', \'\\n\', \'\\n\', \'class Bdb:\\n\', \'\\n\', \'    """Generic Python debugger base class.\\n\', \'\\n\', \'    This class takes care of details of the trace facility;\\n\', \'    a derived class should implement user interaction.\\n\', \'    The standard debugger class (pdb.Pdb) is an example.\\n\', ...], r\'C:\\Python27\\lib\\bdb.py\'), r\'C:\\Python27\\lib\\linecache.py\': (4027L, 1466919968.0, [\'"""Cache lines from files.\\n\', \'\\n\', \'This is intended to read lines from modules imported -- hence if a filename\\n\', \'is not found, it will look down the module search path for a file by\\n\', \'that name.\\n\', \'"""\\n\', \'\\n\', \'import sys\\n\', \'import os\\n\', \'\\n\', \'__all__ = ["getline", "clearcache", "checkcache"]\\n\', \'\\n\', \'def getline(filename, lineno, module_globals=None):\\n\', \'    lines = getlines(filename, module_globals)\\n\', \'    if 1 <= lineno <= len(lines):\\n\', \'        return lines[lineno-1]\\n\', \'    else:\\n\', "        return \'\'\\n", \'\\n\', \'\\n\', ...], r\'C:\\Python27\\lib\\linecache.py\'), r\'C:\\Users\\Kevin\\Desktop\\web2py\\applications\\Blogs\\controllers/post.py\': (687L, 1495587896.0878496, [\'# -*- coding: utf-8 -*-\\n\', \'# intente algo como\\n\', \'def index(): return dict(message="hello from post.py")\\n\', \'def show():\\n\', "    post_id = request.vars.get(\'a\')\\n", \'    postcompleto = db(db.post.id == post_id).select().first()\\n\', \'    postcomentario = db(db.comment_post.post == post_id).select()\\n\', \'    id_post = auth.user.id\\n\', "    name = request.vars.get(\'name\')\\n", \'    post_id = None\\n\', \'    if name:\\n\', \'            post_id = db.comment_post.insert(com... = name, post = post_id, user_comment = id_post)\\n\', \'    #grid = None\\n\', \'    return dict(postcompleto=postcompleto, postcomentario=postcomentario, post_id=post_id)\\n\', \'def list():\\n\', \'    posts = db(db.post.id > 0).select()\\n\', \'    return dict(posts = posts)\\n\'], r\'C:\\Users\\Kevin\\Desktop\\web2py\\applications\\Blogs\\controllers/post.py\'), r\'C:\\Users\\Kevin\\Desktop\\web2py\\applications\\Blogs\\controllers\\post.py\': (687L, 1495587896.0878496, [\'# -*- coding: utf-8 -*-\\n\', \'# intente algo como\\n\', \'def index(): return dict(message="hello from post.py")\\n\', \'def show():\\n\', "    post_id = request.vars.get(\'a\')\\n", \'    postcompleto = db(db.post.id == post_id).select().first()\\n\', \'    postcomentario = db(db.comment_post.post == post_id).select()\\n\', \'    id_post = auth.user.id\\n\', "    name = request.vars.get(\'name\')\\n", \'    post_id = None\\n\', \'    if name:\\n\', \'            post_id = db.comment_post.insert(com... = name, post = post_id, user_comment = id_post)\\n\', \'    #grid = None\\n\', \'    return dict(postcompleto=postcompleto, postcomentario=postcomentario, post_id=post_id)\\n\', \'def list():\\n\', \'    posts = db(db.post.id > 0).select()\\n\', \'    return dict(posts = posts)\\n\'], r\'C:\\Users\\Kevin\\Desktop\\web2py\\applications\\Blogs\\controllers\\post.py\'), r\'C:\\Users\\Kevin\\Desktop\\web2py\\applications\\Escuela\\controllers/appadmin.py\': (25689L, 1462861282.0, [\'# -*- coding: utf-8 -*-\\n\', \'\\n\', \'# ##########################################################\\n\', \'# ## make sure administrator is on localhost\\n\', \'# ###########################################################\\n\', \'\\n\', \'import os\\n\', \'import socket\\n\', \'import datetime\\n\', \'import copy\\n\', \'import gluon.contenttype\\n\', \'import gluon.fileutils\\n\', \'\\n\', \'try:\\n\', \'    import pygraphviz as pgv\\n\', \'except ImportError:\\n\', \'    pgv = None\\n\', \'\\n\', \'is_gae = request.env.web2py_runtime_gae or False\\n\', \'\\n\', ...], r\'C:\\Users\\Kevin\\Desktop\\web2py\\applications\\Escuela\\controllers/appadmin.py\'), r\'C:\\Users\\Kevin\\Desktop\\web2py\\gluon\\contrib\\qdb.py\': (32143L, 1462861284.0, [\'#!/usr/bin/env python\\n\', \'# coding:utf-8\\n\', \'\\n\', \'"Queues(Pipe)-based independent remote client-server Python Debugger"\\n\', \'\\n\', \'__author__ = "Mariano Reingart (reingart@gmail.com)"\\n\', \'__copyright__ = "Copyright (C) 2011 Mariano Reingart"\\n\', \'__license__ = "LGPL 3.0"\\n\', \'__version__ = "1.01b"\\n\', \'\\n\', \'# remote debugger queue-based (jsonrpc-like interface):\\n\', \'# - bidirectional communication (request - response calls in both ways)\\n\', \'# - request with id == null is a notification (do not send a response)\\n\', \'# - request with a value for id is a normal call, wait response\\n\', \'# based on idle, inspired by pythonwin implementation, taken many code from pdb\\n\', \'\\n\', \'import bdb\\n\', \'import inspect\\n\', \'import linecache\\n\', \'import os\\n\', ...], r\'C:\\Users\\Kevin\\Desktop\\web2py\\gluon\\contrib\\qdb.py\'), r\'C:\\Users\\Kevin\\Desktop\\web2py\\gluon\\globals.py\': (47370L, 1462861284.0, [\'#!/usr/bin/env python\\n\', \'# -*- coding: utf-8 -*-\\n\', \'\\n\', \'"""\\n\', \'| This file is part of the web2py Web Framework\\n\', \'| Copyrighted by Massimo Di Pierro <mdipierro@cs.depaul.edu>\\n\', \'| License: LGPLv3 (http://www.gnu.org/licenses/lgpl.html)\\n\', \'\\n\', \'Contains the classes for the global used variables:\\n\', \'\\n\', \'- Request\\n\', \'- Response\\n\', \'- Session\\n\', \'\\n\', \'"""\\n\', \'\\n\', \'from gluon.storage import Storage, List\\n\', \'from gluon.streamer import streamer, stream_file_or_304_or_206, DEFAULT_CHUNK_SIZE\\n\', \'from gluon.xmlrpc import handler\\n\', \'from gluon.contenttype import contenttype\\n\', ...], r\'C:\\Users\\Kevin\\Desktop\\web2py\\gluon\\globals.py\'), r\'C:\\Users\\Kevin\\Desktop\\web2py\\gluon\\main.py\': (29990L, 1462861284.0, [\'#!/bin/env python\\n\', \'# -*- coding: utf-8 -*-\\n\', \'\\n\', \'"""\\n\', \'| This file is part of the web2py Web Framework\\n\', \'| Copyrighted by Massimo Di Pierro <mdipierro@cs.depaul.edu>\\n\', \'| License: LGPLv3 (http://www.gnu.org/licenses/lgpl.html)\\n\', \'\\n\', \'The gluon wsgi application\\n\', \'---------------------------\\n\', \'"""\\n\', \'\\n\', \'if False: import import_all # DO NOT REMOVE PART OF FREEZE PROCESS\\n\', \'import gc\\n\', \'import Cookie\\n\', \'import os\\n\', \'import re\\n\', \'import copy\\n\', \'import sys\\n\', \'import time\\n\', ...], r\'C:\\Users\\Kevin\\Desktop\\web2py\\gluon\\main.py\'), r\'C:\\Users\\Kevin\\Desktop\\web2py\\gluon\\packages\\dal\\pydal\\adapters\\base.py\': (81897L, 1462861308.0, [\'# -*- coding: utf-8 -*-\\n\', \'import re\\n\', \'import os\\n\', \'import sys\\n\', \'import locale\\n\', \'import datetime\\n\', \'import decimal\\n\', \'import copy\\n\', \'import time\\n\', \'import base64\\n\', \'import types\\n\', \'import json\\n\', \'\\n\', \'from .._compat import PY2, pjoin, exists, pickle, hashlib_md5, iterkeys, \\\\\\n\', \'    iteritems, with_metaclass, to_unicode, integer_types, basestring, \\\\\\n\', \'    string_types, to_bytes\\n\', \'from .._globals import IDENTITY\\n\', \'from .._load import portalocker\\n\', \'from ..connection import ConnectionPool\\n\', \'from ..objects import Expression, Field, Query, Table, Row, FieldVirtual, \\\\\\n\', ...], r\'C:\\Users\\Kevin\\Desktop\\web2py\\gluon\\packages\\dal\\pydal\\adapters\\base.py\'), r\'C:\\Users\\Kevin\\Desktop\\web2py\\gluon\\packages\\dal\\pydal\\adapters\\sqlite.py\': (10789L, 1462861308.0, [\'# -*- coding: utf-8 -*-\\n\', \'import copy\\n\', \'import datetime\\n\', \'import locale\\n\', \'import platform\\n\', \'import re\\n\', \'import sys\\n\', \'import time\\n\', \'\\n\', \'from .._compat import PY2, pjoin\\n\', \'from .._globals import IDENTITY\\n\', \'from .base import BaseAdapter\\n\', \'\\n\', \'class SQLiteAdapter(BaseAdapter):\\n\', "    drivers = (\'sqlite2\',\'sqlite3\')\\n", \'\\n\', \'    can_select_for_update = None    # support ourselves with BEGIN TRANSACTION\\n\', \'\\n\', \'    def EXTRACT(self,field,what):\\n\', \'        return "web2py_extract(\\\'%s\\\',%s)" % (what, self.expand(field))\\n\', ...], r\'C:\\Users\\Kevin\\Desktop\\web2py\\gluon\\packages\\dal\\pydal\\adapters\\sqlite.py\'), ...}'
p154
sS'lines'
p155
S'[\'#!/usr/bin/env python\\n\', \'# -*- coding: utf-8 -*-\\n\', \'\\n\', \'"""\\n\', \'| This file is part of the web2py Web Framework\\n\', \'| Copyrighted by Massimo Di Pierro <mdipierro@cs.depaul.edu>\\n\', \'| License: LGPLv3 (http://www.gnu.org/licenses/lgpl.html)\\n\', \'\\n\', \'Contains the classes for the global used variables:\\n\', \'\\n\', \'- Request\\n\', \'- Response\\n\', \'- Session\\n\', \'\\n\', \'"""\\n\', \'\\n\', \'from gluon.storage import Storage, List\\n\', \'from gluon.streamer import streamer, stream_file_or_304_or_206, DEFAULT_CHUNK_SIZE\\n\', \'from gluon.xmlrpc import handler\\n\', \'from gluon.contenttype import contenttype\\n\', ...]'
p156
sS'filename'
p157
S"r'C:\\Users\\Kevin\\Desktop\\web2py\\applications\\Escuela\\controllers/admin.py'"
p158
sS'mtime'
p159
S'1462861284.0'
p160
sS'fullname'
p161
S"r'C:\\Users\\Kevin\\Desktop\\web2py\\gluon\\globals.py'"
p162
sS'size'
p163
S'47370L'
p164
ssg78
I60
sg79
(dp165
I64
S'            stat = os.stat(fullname)'
p166
sI55
S'            filenames = [filename]'
p167
sI56
S'        else:'
p168
sI57
S'            return'
p169
sI58
S''
sI59
S'    for filename in filenames:'
p170
sI60
S'        size, mtime, lines, fullname = cache[filename]'
p171
sI61
S'        if mtime is None:'
p172
sI62
S'            continue   # no-op for files loaded via a __loader__'
p173
sI63
S'        try:'
p174
ssg88
S"(filename=r'C:\\Users\\Kevin\\Desktop\\web2py\\applications\\Escuela\\controllers/admin.py')"
p175
sg90
S'checkcache'
p176
sasS'pyver'
p177
S'Python 2.7.13: C:\\Python27\\python.exe (prefix: C:\\Python27)'
p178
sS'session'
p179
g55
(S's7\x01\x00\x00<div><table><tr><td style="font-weight:bold;vertical-align:top;">last_orderby</td><td style="vertical-align:top;">:</td><td><div>None</div></td></tr><tr><td style="font-weight:bold;vertical-align:top;">last_query</td><td style="vertical-align:top;">:</td><td><div>db.alumno.id&gt;0</div></td></tr></table></div>'
tRp180
sS'etype'
p181
S"<type 'exceptions.KeyError'>"
p182
sS'date'
p183
S'Wed May 23 21:44:57 2018'
p184
sS'response'
p185
g55
(S's\xc9\x15\x00\x00<div><table><tr><td style="font-weight:bold;vertical-align:top;">body</td><td style="vertical-align:top;">:</td><td><div>&lt;cStringIO.StringO object at 0x104A5B80&gt;</div></td></tr><tr><td style="font-weight:bold;vertical-align:top;">cookies</td><td style="vertical-align:top;">:</td><td><div><table><tr><td style="font-weight:bold;vertical-align:top;">session_id_escuela</td><td style="vertical-align:top;">:</td><td><div>127.0.0.1-453040de-52be-4f66-b477-ad77e63d1535<table><tr><td style="font-weight:bold;vertical-align:top;">comment</td><td style="vertical-align:top;">:</td><td><div></div></td></tr><tr><td style="font-weight:bold;vertical-align:top;">domain</td><td style="vertical-align:top;">:</td><td><div></div></td></tr><tr><td style="font-weight:bold;vertical-align:top;">expires</td><td style="vertical-align:top;">:</td><td><div></div></td></tr><tr><td style="font-weight:bold;vertical-align:top;">httponly</td><td style="vertical-align:top;">:</td><td><div></div></td></tr><tr><td style="font-weight:bold;vertical-align:top;">max-age</td><td style="vertical-align:top;">:</td><td><div></div></td></tr><tr><td style="font-weight:bold;vertical-align:top;">path</td><td style="vertical-align:top;">:</td><td><div>/</div></td></tr><tr><td style="font-weight:bold;vertical-align:top;">secure</td><td style="vertical-align:top;">:</td><td><div></div></td></tr><tr><td style="font-weight:bold;vertical-align:top;">version</td><td style="vertical-align:top;">:</td><td><div></div></td></tr></table></div></td></tr></table></div></td></tr><tr><td style="font-weight:bold;vertical-align:top;">delimiters</td><td style="vertical-align:top;">:</td><td><div><table><tr><td><div>{{</div></td></tr><tr><td><div>}}</div></td></tr></table></div></td></tr><tr><td style="font-weight:bold;vertical-align:top;">files</td><td style="vertical-align:top;">:</td><td><div><table></table></div></td></tr><tr><td style="font-weight:bold;vertical-align:top;">flash</td><td style="vertical-align:top;">:</td><td><div></div></td></tr><tr><td style="font-weight:bold;vertical-align:top;">form_label_separator</td><td style="vertical-align:top;">:</td><td><div>: </div></td></tr><tr><td style="font-weight:bold;vertical-align:top;">formstyle</td><td style="vertical-align:top;">:</td><td><div>table3cols</div></td></tr><tr><td style="font-weight:bold;vertical-align:top;">generic_patterns</td><td style="vertical-align:top;">:</td><td><div><table><tr><td><div>*</div></td></tr></table></div></td></tr><tr><td style="font-weight:bold;vertical-align:top;">headers</td><td style="vertical-align:top;">:</td><td><div><table><tr><td style="font-weight:bold;vertical-align:top;">X-Powered-By</td><td style="vertical-align:top;">:</td><td><div>web2py</div></td></tr></table></div></td></tr><tr><td style="font-weight:bold;vertical-align:top;">menu</td><td style="vertical-align:top;">:</td><td><div><table></table></div></td></tr><tr><td style="font-weight:bold;vertical-align:top;">meta</td><td style="vertical-align:top;">:</td><td><div><table></table></div></td></tr><tr><td style="font-weight:bold;vertical-align:top;">postprocessing</td><td style="vertical-align:top;">:</td><td><div><table></table></div></td></tr><tr><td style="font-weight:bold;vertical-align:top;">session_client</td><td style="vertical-align:top;">:</td><td><div>127.0.0.1</div></td></tr><tr><td style="font-weight:bold;vertical-align:top;">session_cookie_compression_level</td><td style="vertical-align:top;">:</td><td><div>None</div></td></tr><tr><td style="font-weight:bold;vertical-align:top;">session_cookie_expires</td><td style="vertical-align:top;">:</td><td><div>None</div></td></tr><tr><td style="font-weight:bold;vertical-align:top;">session_data_name</td><td style="vertical-align:top;">:</td><td><div>session_data_escuela</div></td></tr><tr><td style="font-weight:bold;vertical-align:top;">session_file</td><td style="vertical-align:top;">:</td><td><div>&lt;open file &#x27;C:\\\\Users\\\\Kevin\\\\Desktop\\\\web2py\\\\applications\\\\Escuela\\\\sessions\\\\0a5\\\\190\\\\127.0.0.1-453040de-52be-4f66-b477-ad77e63d1535&#x27;, mode &#x27;rb+&#x27; at 0x0E2D2EE8&gt;</div></td></tr><tr><td style="font-weight:bold;vertical-align:top;">session_filename</td><td style="vertical-align:top;">:</td><td><div>C:\\Users\\Kevin\\Desktop\\web2py\\applications\\Escuela\\sessions\\127.0.0.1-453040de-52be-4f66-b477-ad77e63d1535</div></td></tr><tr><td style="font-weight:bold;vertical-align:top;">session_hash</td><td style="vertical-align:top;">:</td><td><div>e5a2d3a58f7e31ee5f0060a51447b16a</div></td></tr><tr><td style="font-weight:bold;vertical-align:top;">session_id</td><td style="vertical-align:top;">:</td><td><div>127.0.0.1-453040de-52be-4f66-b477-ad77e63d1535</div></td></tr><tr><td style="font-weight:bold;vertical-align:top;">session_id_name</td><td style="vertical-align:top;">:</td><td><div>session_id_escuela</div></td></tr><tr><td style="font-weight:bold;vertical-align:top;">session_locked</td><td style="vertical-align:top;">:</td><td><div>True</div></td></tr><tr><td style="font-weight:bold;vertical-align:top;">session_masterapp</td><td style="vertical-align:top;">:</td><td><div>Escuela</div></td></tr><tr><td style="font-weight:bold;vertical-align:top;">session_new</td><td style="vertical-align:top;">:</td><td><div>False</div></td></tr><tr><td style="font-weight:bold;vertical-align:top;">session_storage_type</td><td style="vertical-align:top;">:</td><td><div>file</div></td></tr><tr><td style="font-weight:bold;vertical-align:top;">status</td><td style="vertical-align:top;">:</td><td><div>200</div></td></tr></table></div>'
tRp186
sS'locals'
p187
(dp188
S'stat'
p189
S'nt.stat_result(st_mode=33206, st_ino=0L, st_dev=...016L, st_mtime=1462861284L, st_ctime=1493342016L)'
p190
sg79
S'[\'#!/usr/bin/env python\\n\', \'# -*- coding: utf-8 -*-\\n\', \'\\n\', \'"""\\n\', \'| This file is part of the web2py Web Framework\\n\', \'| Copyrighted by Massimo Di Pierro <mdipierro@cs.depaul.edu>\\n\', \'| License: LGPLv3 (http://www.gnu.org/licenses/lgpl.html)\\n\', \'\\n\', \'Contains the classes for the global used variables:\\n\', \'\\n\', \'- Request\\n\', \'- Response\\n\', \'- Session\\n\', \'\\n\', \'"""\\n\', \'\\n\', \'from gluon.storage import Storage, List\\n\', \'from gluon.streamer import streamer, stream_file_or_304_or_206, DEFAULT_CHUNK_SIZE\\n\', \'from gluon.xmlrpc import handler\\n\', \'from gluon.contenttype import contenttype\\n\', ...]'
p191
sS'filenames'
p192
S"[r'C:\\Users\\Kevin\\Desktop\\web2py\\gluon\\packages\\dal\\pydal\\objects.py', r'C:\\Users\\Kevin\\Desktop\\web2py\\gluon\\restricted.py', r'C:\\Users\\Kevin\\Desktop\\web2py\\applications\\Blogs\\controllers\\post.py', r'C:\\Users\\Kevin\\Desktop\\web2py\\gluon\\packages\\dal\\pydal\\adapters\\sqlite.py', r'C:\\Users\\Kevin\\Desktop\\web2py\\gluon\\globals.py', r'C:\\Users\\Kevin\\Desktop\\web2py\\applications\\Escuela\\controllers/admin.py', r'C:\\Users\\Kevin\\Desktop\\web2py\\gluon\\packages\\dal\\pydal\\adapters\\base.py', r'C:\\Users\\Kevin\\Desktop\\web2py\\applications\\Blogs\\controllers/post.py', r'C:\\Users\\Kevin\\Desktop\\web2py\\applications\\Escuela\\controllers/appadmin.py', r'C:\\Users\\Kevin\\Desktop\\web2py\\applications\\Escuela\\controllers\\admin.py']"
p193
sS'mtime'
p194
S'1462861284.0'
p195
sS'fullname'
p196
S"r'C:\\Users\\Kevin\\Desktop\\web2py\\gluon\\globals.py'"
p197
sS'filename'
p198
S"r'C:\\Users\\Kevin\\Desktop\\web2py\\applications\\Escuela\\controllers/admin.py'"
p199
sS'size'
p200
S'47370L'
p201
sssS'traceback'
p202
S'Traceback (most recent call last):\n  File "C:\\Users\\Kevin\\Desktop\\web2py\\gluon\\main.py", line 447, in wsgibase\n    gluon.debug.dbg.do_debug(mainpyfile=request.folder)\n  File "C:\\Users\\Kevin\\Desktop\\web2py\\gluon\\contrib\\qdb.py", line 214, in do_debug\n    self.reset()\n  File "C:\\Users\\Kevin\\Desktop\\web2py\\gluon\\contrib\\qdb.py", line 440, in reset\n    bdb.Bdb.reset(self)\n  File "C:\\Python27\\lib\\bdb.py", line 41, in reset\n    linecache.checkcache()\n  File "C:\\Python27\\lib\\linecache.py", line 60, in checkcache\n    size, mtime, lines, fullname = cache[filename]\nKeyError: \'C:\\\\Users\\\\Kevin\\\\Desktop\\\\web2py\\\\applications\\\\Escuela\\\\controllers/admin.py\'\n'
p203
s.